(dp0
S'+-o+:'
p1
(lp2
S'E0-1'
p3
aS'M2-1'
p4
aS'M3-1'
p5
asS'+++o:'
p6
(lp7
S'E0-1'
p8
aS'M3+1'
p9
aS'F4+1'
p10
asS'+o:o+'
p11
(lp12
S'E0-1'
p13
aS'M1+1'
p14
aS'F2+1'
p15
aS'B3-1'
p16
aS'M4+1'
p17
aS'E5-1'
p18
asS'+-+o:'
p19
(lp20
S'E0-1'
p21
aS'H1+1'
p22
aS'M3+1'
p23
aS'F4+1'
p24
asS'++:++'
p25
(lp26
S'E0-1'
p27
aS'E5-1'
p28
asS'++:+-'
p29
(lp30
S'E0-1'
p31
aS'H4-1'
p32
aS'E5+1'
p33
asS'+++:+'
p34
(lp35
S'E0-1'
p36
aS'E5-1'
p37
asS':oo++'
p38
(lp39
S'B1-1'
p40
aS'H2+1'
p41
aS'M3+1'
p42
aS'E5-1'
p43
asS':oo+-'
p44
(lp45
S'B1-1'
p46
aS'H2+1'
p47
aS'M3+1'
p48
aS'E5+1'
p49
asS'oo+o:'
p50
(lp51
S'E0+1'
p52
aS'E0-1'
p53
aS'UB0-1'
p54
aS'H1-1'
p55
aS'H1+1'
p56
aS'M2-1'
p57
aS'F4+1'
p58
asS'++oo:'
p59
(lp60
S'E0-1'
p61
aS'M2+1'
p62
aS'H3+1'
p63
aS'F4+1'
p64
asS'++o:o'
p65
(lp66
S'E0-1'
p67
aS'M2+1'
p68
aS'F3+1'
p69
aS'B4-1'
p70
aS'E5+1'
p71
asS'-oo+:'
p72
(lp73
S'M1-1'
p74
aS'H2-1'
p75
aS'H2+1'
p76
aS'M3-1'
p77
asS'o+:o+'
p78
(lp79
S'E0+1'
p80
aS'E0-1'
p81
aS'M1-1'
p82
aS'B3-1'
p83
aS'M4+1'
p84
aS'E5-1'
p85
asS'-o++:'
p86
(lp87
S'E0+1'
p88
aS'M1-1'
p89
aS'M2-1'
p90
asS'o:+-+'
p91
(lp92
S'E0+1'
p93
aS'F1+1'
p94
aS'H3-1'
p95
aS'H4+1'
p96
aS'E5-1'
p97
asS'oo+:o'
p98
(lp99
S'E0+1'
p100
aS'E0-1'
p101
aS'H1-1'
p102
aS'H1+1'
p103
aS'M2-1'
p104
aS'B4-1'
p105
aS'E5+1'
p106
asS':+-o+'
p107
(lp108
S'M3+1'
p109
aS'M4+1'
p110
aS'E5-1'
p111
asS'--++:'
p112
(lp113
S'E0+1'
p114
aS'H2-1'
p115
asS'+-++:'
p116
(lp117
S'E0-1'
p118
aS'H1+1'
p119
aS'H2-1'
p120
asS'o-+o:'
p121
(lp122
S'E0+1'
p123
aS'UB0-1'
p124
aS'M1+1'
p125
aS'M3+1'
p126
aS'F4+1'
p127
asS'+o:oo'
p128
(lp129
S'E0-1'
p130
aS'M1+1'
p131
aS'B3-1'
p132
aS'H4+1'
p133
aS'E5+1'
p134
asS'+o:+-'
p135
(lp136
S'E0-1'
p137
aS'M1+1'
p138
aS'F2+1'
p139
aS'H4-1'
p140
aS'E5+1'
p141
asS'++:+o'
p142
(lp143
S'E0-1'
p144
aS'M4-1'
p145
aS'E5+1'
p146
aS'E5-1'
p147
asS'+++:o'
p148
(lp149
S'E0-1'
p150
aS'B4-1'
p151
aS'E5+1'
p152
asS':oo+o'
p153
(lp154
S'B1-1'
p155
aS'H2+1'
p156
aS'M3+1'
p157
aS'UF4+1'
p158
aS'E5+1'
p159
aS'E5-1'
p160
asS'o-o+:'
p161
(lp162
S'E0+1'
p163
aS'UB0-1'
p164
aS'M1+1'
p165
aS'M2-1'
p166
aS'M3-1'
p167
asS'++o:+'
p168
(lp169
S'E0-1'
p170
aS'M2+1'
p171
aS'F3+1'
p172
aS'E5-1'
p173
asS'++o+:'
p174
(lp175
S'E0-1'
p176
aS'M2+1'
p177
aS'M3-1'
p178
asS'oo+:+'
p179
(lp180
S'E0+1'
p181
aS'E0-1'
p182
aS'H1-1'
p183
aS'H1+1'
p184
aS'M2-1'
p185
aS'E5-1'
p186
asS'o:+-o'
p187
(lp188
S'E0+1'
p189
aS'F1+1'
p190
aS'M4+1'
p191
aS'E5+1'
p192
asS'-+o+:'
p193
(lp194
S'E0+1'
p195
aS'M2+1'
p196
aS'M3-1'
p197
asS'+:+-o'
p198
(lp199
S'E0-1'
p200
aS'M4+1'
p201
aS'E5+1'
p202
asS':+o+-'
p203
(lp204
S'M2-1'
p205
aS'M3+1'
p206
aS'E5+1'
p207
asS':+-+o'
p208
(lp209
S'H2-1'
p210
aS'M4-1'
p211
aS'UF4+1'
p212
aS'E5+1'
p213
aS'E5-1'
p214
asS':+o++'
p215
(lp216
S'M2-1'
p217
aS'M3+1'
p218
aS'E5-1'
p219
asS':o++-'
p220
(lp221
S'B1-1'
p222
aS'M2+1'
p223
aS'H4-1'
p224
aS'E5+1'
p225
asS'-+:oo'
p226
(lp227
S'E0+1'
p228
aS'H1-1'
p229
aS'B3-1'
p230
aS'H4+1'
p231
aS'E5+1'
p232
asS':o+++'
p233
(lp234
S'B1-1'
p235
aS'M2+1'
p236
aS'E5-1'
p237
asS'-++o:'
p238
(lp239
S'E0+1'
p240
aS'H1-1'
p241
aS'M3+1'
p242
aS'F4+1'
p243
asS'-+:+-'
p244
(lp245
S'E0+1'
p246
aS'H1-1'
p247
aS'H4-1'
p248
aS'E5+1'
p249
asS'-+:++'
p250
(lp251
S'E0+1'
p252
aS'H1-1'
p253
aS'E5-1'
p254
asS':++o-'
p255
(lp256
S'M3-1'
p257
aS'M4-1'
p258
aS'E5+1'
p259
asS'+o:+o'
p260
(lp261
S'E0-1'
p262
aS'M1+1'
p263
aS'F2+1'
p264
aS'M4-1'
p265
aS'E5+1'
p266
aS'E5-1'
p267
asS'o:+oo'
p268
(lp269
S'E0+1'
p270
aS'F1+1'
p271
aS'M3-1'
p272
aS'H4-1'
p273
aS'H4+1'
p274
aS'E5+1'
p275
aS'E5-1'
p276
asS':++o+'
p277
(lp278
S'M3-1'
p279
aS'M4+1'
p280
aS'E5-1'
p281
asS'o:++-'
p282
(lp283
S'E0+1'
p284
aS'F1+1'
p285
aS'H4-1'
p286
aS'E5+1'
p287
asS'o:+++'
p288
(lp289
S'E0+1'
p290
aS'F1+1'
p291
aS'E5-1'
p292
asS'o+:+-'
p293
(lp294
S'E0+1'
p295
aS'E0-1'
p296
aS'M1-1'
p297
aS'H4-1'
p298
aS'E5+1'
p299
asS'o:o+o'
p300
(lp301
S'E0+1'
p302
aS'F1+1'
p303
aS'B2-1'
p304
aS'M3+1'
p305
aS'M4-1'
p306
aS'E5+1'
p307
aS'E5-1'
p308
asS'o+:++'
p309
(lp310
S'E0+1'
p311
aS'E0-1'
p312
aS'M1-1'
p313
aS'E5-1'
p314
asS'-+o:+'
p315
(lp316
S'E0+1'
p317
aS'M2+1'
p318
aS'F3+1'
p319
aS'E5-1'
p320
asS'o:oo+'
p321
(lp322
S'E0+1'
p323
aS'B2-1'
p324
aS'H3+1'
p325
aS'M4+1'
p326
asS':+++o'
p327
(lp328
S'M4-1'
p329
aS'UF4+1'
p330
aS'E5+1'
p331
aS'E5-1'
p332
asS':+oo+'
p333
(lp334
S'M2-1'
p335
aS'H3-1'
p336
aS'H3+1'
p337
aS'M4+1'
p338
asS':+oo-'
p339
(lp340
S'M2-1'
p341
aS'H3-1'
p342
aS'H3+1'
p343
aS'M4-1'
p344
asS'+:+-+'
p345
(lp346
S'E0-1'
p347
aS'H3-1'
p348
aS'H4+1'
p349
aS'E5-1'
p350
asS':+-++'
p351
(lp352
S'H2-1'
p353
aS'H3+1'
p354
aS'E5-1'
p355
asS':+o+o'
p356
(lp357
S'M2-1'
p358
aS'M3+1'
p359
aS'M4-1'
p360
aS'UF4+1'
p361
aS'E5+1'
p362
aS'E5-1'
p363
asS'-+++:'
p364
(lp365
S'E0+1'
p366
aS'H1-1'
p367
asS':+-+-'
p368
(lp369
S'H2-1'
p370
aS'H3+1'
p371
aS'H4-1'
p372
aS'E5+1'
p373
asS'-+:o+'
p374
(lp375
S'E0+1'
p376
aS'H1-1'
p377
aS'B3-1'
p378
aS'M4+1'
p379
aS'E5-1'
p380
asS':o++o'
p381
(lp382
S'B1-1'
p383
aS'M2+1'
p384
aS'M4-1'
p385
aS'UF4+1'
p386
aS'E5+1'
p387
aS'E5-1'
p388
asS'o+oo:'
p389
(lp390
S'E0+1'
p391
aS'E0-1'
p392
aS'UB0-1'
p393
aS'M2+1'
p394
aS'H3+1'
p395
aS'F4+1'
p396
asS'-+:+o'
p397
(lp398
S'E0+1'
p399
aS'H1-1'
p400
aS'M4-1'
p401
aS'E5+1'
p402
aS'E5-1'
p403
asS'+o+o:'
p404
(lp405
S'E0-1'
p406
aS'M1+1'
p407
aS'M2-1'
p408
aS'M3+1'
p409
aS'F4+1'
p410
asS'o:+o+'
p411
(lp412
S'E0+1'
p413
aS'F1+1'
p414
aS'M3-1'
p415
aS'M4+1'
p416
aS'E5-1'
p417
asS':++oo'
p418
(lp419
S'M3-1'
p420
aS'H4-1'
p421
aS'H4+1'
p422
aS'UF4+1'
p423
aS'E5+1'
p424
aS'E5-1'
p425
asS'o:+o-'
p426
(lp427
S'E0+1'
p428
aS'F1+1'
p429
aS'M3-1'
p430
aS'M4-1'
p431
aS'E5+1'
p432
asS'o:++o'
p433
(lp434
S'E0+1'
p435
aS'F1+1'
p436
aS'M4-1'
p437
aS'E5+1'
p438
aS'E5-1'
p439
asS':+-oo'
p440
(lp441
S'M3+1'
p442
aS'H4+1'
p443
aS'UF4+1'
p444
aS'E5+1'
p445
asS'o+:+o'
p446
(lp447
S'E0+1'
p448
aS'E0-1'
p449
aS'M1-1'
p450
aS'M4-1'
p451
aS'E5+1'
p452
aS'E5-1'
p453
asS'o:o+-'
p454
(lp455
S'E0+1'
p456
aS'F1+1'
p457
aS'B2-1'
p458
aS'M3+1'
p459
aS'E5+1'
p460
asS'o-++:'
p461
(lp462
S'E0+1'
p463
aS'E0-1'
p464
aS'UB0-1'
p465
aS'M1+1'
p466
asS':+++-'
p467
(lp468
S'H4-1'
p469
aS'E5+1'
p470
asS'+:++o'
p471
(lp472
S'E0-1'
p473
aS'M4-1'
p474
aS'E5+1'
p475
aS'E5-1'
p476
asS':+o-+'
p477
(lp478
S'M2-1'
p479
aS'M3-1'
p480
aS'E5-1'
p481
asS'o+o+:'
p482
(lp483
S'E0+1'
p484
aS'E0-1'
p485
aS'UB0-1'
p486
aS'M1-1'
p487
aS'M2+1'
p488
aS'M3-1'
p489
asS'-++:o'
p490
(lp491
S'E0+1'
p492
aS'H1-1'
p493
aS'B4-1'
p494
aS'E5+1'
p495
asS':o+-+'
p496
(lp497
S'B1-1'
p498
aS'M2+1'
p499
aS'H4+1'
p500
aS'E5-1'
p501
asS'oo:++'
p502
(lp503
S'E0+1'
p504
aS'H1+1'
p505
aS'F2+1'
p506
aS'E5-1'
p507
asS'oo:+-'
p508
(lp509
S'E0+1'
p510
aS'H1+1'
p511
aS'F2+1'
p512
aS'H4-1'
p513
aS'E5+1'
p514
asS'oo:oo'
p515
(lp516
S'E0+1'
p517
aS'H1+1'
p518
aS'H4+1'
p519
aS'E5+1'
p520
asS'o+++:'
p521
(lp522
S'E0+1'
p523
aS'E0-1'
p524
aS'UB0-1'
p525
aS'M1-1'
p526
asS'-o+:o'
p527
(lp528
S'E0+1'
p529
aS'M1-1'
p530
aS'M2-1'
p531
aS'B4-1'
p532
aS'E5+1'
p533
asS'+o++:'
p534
(lp535
S'E0-1'
p536
aS'M1+1'
p537
aS'M2-1'
p538
asS':++-o'
p539
(lp540
S'M4+1'
p541
aS'UF4+1'
p542
aS'E5+1'
p543
aS'E5-1'
p544
asS':o+o+'
p545
(lp546
S'B1-1'
p547
aS'M2+1'
p548
aS'M3-1'
p549
aS'M4+1'
p550
aS'E5-1'
p551
asS'o+:oo'
p552
(lp553
S'E0+1'
p554
aS'E0-1'
p555
aS'M1-1'
p556
aS'B3-1'
p557
aS'H4+1'
p558
aS'E5+1'
p559
asS'o+o:o'
p560
(lp561
S'E0+1'
p562
aS'E0-1'
p563
aS'M1-1'
p564
aS'M2+1'
p565
aS'F3+1'
p566
aS'B4-1'
p567
aS'E5+1'
p568
asS'-+oo:'
p569
(lp570
S'E0+1'
p571
aS'M2+1'
p572
aS'H3+1'
p573
aS'F4+1'
p574
asS'-o+o:'
p575
(lp576
S'E0+1'
p577
aS'M1-1'
p578
aS'M2-1'
p579
aS'M3+1'
p580
aS'F4+1'
p581
asS'o-+:+'
p582
(lp583
S'E0+1'
p584
aS'M1+1'
p585
aS'E5-1'
p586
asS'+:+++'
p587
(lp588
S'E0-1'
p589
aS'E5-1'
p590
asS'+:++-'
p591
(lp592
S'E0-1'
p593
aS'H4-1'
p594
aS'E5+1'
p595
asS'-++:+'
p596
(lp597
S'E0+1'
p598
aS'H1-1'
p599
aS'E5-1'
p600
asS':+o-o'
p601
(lp602
S'M2-1'
p603
aS'M3-1'
p604
aS'M4+1'
p605
aS'UF4+1'
p606
aS'E5+1'
p607
asS'o++o:'
p608
(lp609
S'E0+1'
p610
aS'E0-1'
p611
aS'UB0-1'
p612
aS'M1-1'
p613
aS'M3+1'
p614
aS'F4+1'
p615
asS':o+-o'
p616
(lp617
S'B1-1'
p618
aS'M2+1'
p619
aS'M4+1'
p620
aS'UF4+1'
p621
aS'E5+1'
p622
asS'oo:+o'
p623
(lp624
S'E0+1'
p625
aS'H1+1'
p626
aS'F2+1'
p627
aS'M4-1'
p628
aS'E5+1'
p629
aS'E5-1'
p630
asS'+-+:o'
p631
(lp632
S'E0-1'
p633
aS'H1+1'
p634
aS'H2-1'
p635
aS'B4-1'
p636
aS'E5+1'
p637
asS'o+-+:'
p638
(lp639
S'E0+1'
p640
aS'E0-1'
p641
aS'UB0-1'
p642
aS'M1-1'
p643
aS'H3-1'
p644
asS'oo:o+'
p645
(lp646
S'E0+1'
p647
aS'H1+1'
p648
aS'F2+1'
p649
aS'M4+1'
p650
aS'E5-1'
p651
asS'+o-+:'
p652
(lp653
S'E0-1'
p654
aS'M1+1'
p655
aS'M2+1'
p656
asS'-o+:+'
p657
(lp658
S'E0+1'
p659
aS'M1-1'
p660
aS'M2-1'
p661
aS'E5-1'
p662
asS'o+o:+'
p663
(lp664
S'E0+1'
p665
aS'E0-1'
p666
aS'M1-1'
p667
aS'M2+1'
p668
aS'F3+1'
p669
aS'E5-1'
p670
asS':++--'
p671
(lp672
S'H3-1'
p673
aS'E5+1'
p674
asS':++-+'
p675
(lp676
S'H3-1'
p677
aS'H4+1'
p678
aS'E5-1'
p679
asS':o+oo'
p680
(lp681
S'B1-1'
p682
aS'M3-1'
p683
aS'H4-1'
p684
aS'H4+1'
p685
aS'UF4+1'
p686
aS'E5+1'
p687
aS'E5-1'
p688
asS'+oo+:'
p689
(lp690
S'M1+1'
p691
aS'H2-1'
p692
aS'H2+1'
p693
aS'M3-1'
p694
asS':o+o-'
p695
(lp696
S'B1-1'
p697
aS'M2+1'
p698
aS'M3-1'
p699
aS'M4-1'
p700
aS'E5+1'
p701
asS'o-+:o'
p702
(lp703
S'E0+1'
p704
aS'M1+1'
p705
aS'B4-1'
p706
aS'E5+1'
p707
asS'++:oo'
p708
(lp709
S'E0-1'
p710
aS'B3-1'
p711
aS'H4+1'
p712
aS'E5+1'
p713
asS'+:+o-'
p714
(lp715
S'E0-1'
p716
aS'M3-1'
p717
aS'M4-1'
p718
aS'E5+1'
p719
asS'+:+o+'
p720
(lp721
S'E0-1'
p722
aS'M3-1'
p723
aS'M4+1'
p724
aS'E5-1'
p725
asS'+oo:+'
p726
(lp727
S'M1+1'
p728
aS'H2+1'
p729
aS'F3+1'
p730
aS'E5-1'
p731
asS'-+o:o'
p732
(lp733
S'E0+1'
p734
aS'M2+1'
p735
aS'F3+1'
p736
aS'B4-1'
p737
aS'E5+1'
p738
asS'+o+:+'
p739
(lp740
S'E0-1'
p741
aS'M1+1'
p742
aS'M2-1'
p743
aS'E5-1'
p744
asS'o:o++'
p745
(lp746
S'E0+1'
p747
aS'F1+1'
p748
aS'B2-1'
p749
aS'M3+1'
p750
aS'E5-1'
p751
asS'+:oo+'
p752
(lp753
S'E0-1'
p754
aS'B2-1'
p755
aS'H3+1'
p756
aS'M4+1'
p757
asS'+:o+o'
p758
(lp759
S'E0-1'
p760
aS'B2-1'
p761
aS'M3+1'
p762
aS'M4-1'
p763
aS'E5+1'
p764
aS'E5-1'
p765
asS'o++:+'
p766
(lp767
S'E0+1'
p768
aS'E0-1'
p769
aS'M1-1'
p770
aS'E5-1'
p771
asS'++++:'
p772
(lp773
S'E0-1'
p774
asS'++:o+'
p775
(lp776
S'E0-1'
p777
aS'B3-1'
p778
aS'M4+1'
p779
aS'E5-1'
p780
asS'+:+oo'
p781
(lp782
S'E0-1'
p783
aS'M3-1'
p784
aS'H4-1'
p785
aS'H4+1'
p786
aS'E5+1'
p787
aS'E5-1'
p788
asS'-+-+:'
p789
(lp790
S'E0+1'
p791
aS'H1-1'
p792
aS'H2+1'
p793
aS'H3-1'
p794
asS'++-+:'
p795
(lp796
S'E0-1'
p797
aS'H2+1'
p798
aS'H3-1'
p799
asS'+oo:o'
p800
(lp801
S'M1+1'
p802
aS'H2+1'
p803
aS'F3+1'
p804
aS'E5+1'
p805
asS'+o:++'
p806
(lp807
S'E0-1'
p808
aS'M1+1'
p809
aS'F2+1'
p810
aS'E5-1'
p811
asS'oo++:'
p812
(lp813
S'E0+1'
p814
aS'E0-1'
p815
aS'UB0-1'
p816
aS'H1-1'
p817
aS'H1+1'
p818
aS'M2-1'
p819
asS'oo-+:'
p820
(lp821
S'E0+1'
p822
aS'UB0-1'
p823
aS'H1+1'
p824
aS'M2+1'
p825
asS'+o+:o'
p826
(lp827
S'E0-1'
p828
aS'M1+1'
p829
aS'M2-1'
p830
aS'B4-1'
p831
aS'E5+1'
p832
asS'+-+:+'
p833
(lp834
S'E0-1'
p835
aS'H1+1'
p836
aS'H2-1'
p837
aS'E5-1'
p838
asS'o++:o'
p839
(lp840
S'E0+1'
p841
aS'E0-1'
p842
aS'M1-1'
p843
aS'B4-1'
p844
aS'E5+1'
p845
asS'+:o+-'
p846
(lp847
S'E0-1'
p848
aS'B2-1'
p849
aS'M3+1'
p850
aS'E5+1'
p851
asS'+:o++'
p852
(lp853
S'E0-1'
p854
aS'B2-1'
p855
aS'M3+1'
p856
aS'E5-1'
p857
as.