(dp0
S'+-o+:'
p1
(lp2
S'E0-1'
p3
aS'M2-1'
p4
aS'M3-1'
p5
asS'+++o:'
p6
(lp7
S'E0-1'
p8
aS'M3+1'
p9
aS'F4+1'
p10
asS'+o:o+'
p11
(lp12
S'M1+1'
p13
aS'M4+1'
p14
asS'+-+o:'
p15
(lp16
S'E0-1'
p17
aS'M3+1'
p18
aS'F4+1'
p19
asS'+o:+o'
p20
(lp21
S'M1+1'
p22
aS'F2+1'
p23
aS'M4-1'
p24
aS'E5+1'
p25
aS'E5-1'
p26
asS'++:+-'
p27
(lp28
S'E0-1'
p29
aS'E5+1'
p30
asS'+++:+'
p31
(lp32
S'E0-1'
p33
aS'E5-1'
p34
asS'++o:o'
p35
(lp36
S'E0-1'
p37
aS'M2+1'
p38
aS'E5+1'
p39
asS'-o++:'
p40
(lp41
S'M1-1'
p42
aS'M2-1'
p43
asS'o:+-+'
p44
(lp45
S'E0+1'
p46
aS'F1+1'
p47
aS'E5-1'
p48
asS':+-o+'
p49
(lp50
S'M3+1'
p51
aS'M4+1'
p52
asS'--++:'
p53
(lp54
S'E0+1'
p55
asS'+-++:'
p56
(lp57
S'E0-1'
p58
asS'o-+o:'
p59
(lp60
S'E0+1'
p61
aS'M1+1'
p62
aS'M3+1'
p63
aS'F4+1'
p64
aS'UB4-1'
p65
asS'+o:+-'
p66
(lp67
S'M1+1'
p68
aS'F2+1'
p69
aS'E5+1'
p70
asS'-++:o'
p71
(lp72
S'E0+1'
p73
aS'B4-1'
p74
aS'E5+1'
p75
asS'++:+o'
p76
(lp77
S'E0-1'
p78
aS'M4-1'
p79
aS'E5+1'
p80
aS'E5-1'
p81
asS'+++:o'
p82
(lp83
S'E0-1'
p84
aS'B4-1'
p85
aS'E5+1'
p86
asS'o-o+:'
p87
(lp88
S'E0+1'
p89
aS'UB0-1'
p90
aS'M3-1'
p91
asS'++o:+'
p92
(lp93
S'E0-1'
p94
aS'M2+1'
p95
aS'F3+1'
p96
aS'E5-1'
p97
asS'++o+:'
p98
(lp99
S'E0-1'
p100
aS'M2+1'
p101
aS'M3-1'
p102
asS'o:+-o'
p103
(lp104
S'E0+1'
p105
aS'F1+1'
p106
aS'M4+1'
p107
aS'E5+1'
p108
asS'-+o+:'
p109
(lp110
S'E0+1'
p111
aS'M2+1'
p112
aS'M3-1'
p113
asS'+:+-o'
p114
(lp115
S'E0-1'
p116
aS'M4+1'
p117
aS'E5+1'
p118
asS':+o+-'
p119
(lp120
S'M2-1'
p121
aS'M3+1'
p122
aS'E5+1'
p123
asS':+-+o'
p124
(lp125
S'M4-1'
p126
aS'UF4+1'
p127
aS'E5+1'
p128
aS'E5-1'
p129
asS':+o++'
p130
(lp131
S'M2-1'
p132
aS'M3+1'
p133
aS'E5-1'
p134
asS':o++-'
p135
(lp136
S'B1-1'
p137
aS'M2+1'
p138
aS'E5+1'
p139
asS':o+++'
p140
(lp141
S'B1-1'
p142
aS'M2+1'
p143
aS'E5-1'
p144
asS'-++o:'
p145
(lp146
S'E0+1'
p147
aS'M3+1'
p148
aS'F4+1'
p149
asS'-+:+-'
p150
(lp151
S'E0+1'
p152
aS'E5+1'
p153
asS'-+:++'
p154
(lp155
S'E0+1'
p156
aS'E5-1'
p157
asS':++o-'
p158
(lp159
S'M3-1'
p160
aS'M4-1'
p161
asS'++:++'
p162
(lp163
S'E0-1'
p164
aS'E5-1'
p165
asS'++:o+'
p166
(lp167
S'E0-1'
p168
aS'B3-1'
p169
aS'M4+1'
p170
asS':++o+'
p171
(lp172
S'M3-1'
p173
aS'M4+1'
p174
asS'o:++-'
p175
(lp176
S'E0+1'
p177
aS'F1+1'
p178
aS'E5+1'
p179
asS'o:+++'
p180
(lp181
S'E0+1'
p182
aS'F1+1'
p183
aS'E5-1'
p184
asS'o+:+-'
p185
(lp186
S'E0+1'
p187
aS'E0-1'
p188
aS'M1-1'
p189
aS'E5+1'
p190
asS'o:o+o'
p191
(lp192
S'E0+1'
p193
aS'E5+1'
p194
aS'E5-1'
p195
asS'o+:++'
p196
(lp197
S'E0+1'
p198
aS'E0-1'
p199
aS'M1-1'
p200
aS'E5-1'
p201
asS'o+++:'
p202
(lp203
S'E0+1'
p204
aS'E0-1'
p205
aS'UB0-1'
p206
aS'M1-1'
p207
asS':+++o'
p208
(lp209
S'UF0+1'
p210
aS'M4-1'
p211
aS'E5+1'
p212
aS'E5-1'
p213
asS':+o+o'
p214
(lp215
S'M2-1'
p216
aS'UF4+1'
p217
aS'E5+1'
p218
aS'E5-1'
p219
asS'+:+-+'
p220
(lp221
S'E0-1'
p222
aS'E5-1'
p223
asS':+-++'
p224
(lp225
S'E5-1'
p226
asS'o+:o+'
p227
(lp228
S'E0+1'
p229
aS'E0-1'
p230
aS'M1-1'
p231
aS'B3-1'
p232
aS'M4+1'
p233
asS'-+++:'
p234
(lp235
S'E0+1'
p236
asS':+-+-'
p237
(lp238
S'E5+1'
p239
asS'-+:o+'
p240
(lp241
S'E0+1'
p242
aS'B3-1'
p243
aS'M4+1'
p244
asS':o++o'
p245
(lp246
S'B1-1'
p247
aS'M2+1'
p248
aS'M4-1'
p249
aS'UF4+1'
p250
aS'E5+1'
p251
aS'E5-1'
p252
asS'-+:+o'
p253
(lp254
S'E0+1'
p255
aS'M4-1'
p256
aS'E5+1'
p257
aS'E5-1'
p258
asS'+o+o:'
p259
(lp260
S'M1+1'
p261
aS'F4+1'
p262
asS'o:+o+'
p263
(lp264
S'E0+1'
p265
aS'F1+1'
p266
aS'M3-1'
p267
aS'M4+1'
p268
asS'o:+o-'
p269
(lp270
S'E0+1'
p271
aS'F1+1'
p272
aS'M3-1'
p273
aS'M4-1'
p274
asS'o:++o'
p275
(lp276
S'E0+1'
p277
aS'F1+1'
p278
aS'M4-1'
p279
aS'E5+1'
p280
aS'E5-1'
p281
asS'+-+:o'
p282
(lp283
S'E0-1'
p284
aS'B4-1'
p285
aS'E5+1'
p286
asS'o:o++'
p287
(lp288
S'E0+1'
p289
aS'M3+1'
p290
aS'E5-1'
p291
asS'o+:+o'
p292
(lp293
S'E0+1'
p294
aS'E0-1'
p295
aS'M1-1'
p296
aS'M4-1'
p297
aS'E5+1'
p298
aS'E5-1'
p299
asS'o:o+-'
p300
(lp301
S'E0+1'
p302
aS'M3+1'
p303
aS'E5+1'
p304
asS':++++'
p305
(lp306
S'E5-1'
p307
asS':+++-'
p308
(lp309
S'E5+1'
p310
asS'+:++o'
p311
(lp312
S'E0-1'
p313
aS'M4-1'
p314
aS'E5+1'
p315
aS'E5-1'
p316
asS':+o-+'
p317
(lp318
S'M2-1'
p319
aS'M3-1'
p320
aS'E5-1'
p321
asS'o+o+:'
p322
(lp323
S'E0+1'
p324
aS'E0-1'
p325
aS'UB0-1'
p326
aS'M3-1'
p327
asS':o+o-'
p328
(lp329
S'B1-1'
p330
aS'M4-1'
p331
asS':o+-+'
p332
(lp333
S'B1-1'
p334
aS'M2+1'
p335
aS'E5-1'
p336
asS'-+o:+'
p337
(lp338
S'E0+1'
p339
aS'M2+1'
p340
aS'F3+1'
p341
aS'E5-1'
p342
asS'-o+:o'
p343
(lp344
S'M1-1'
p345
aS'M2-1'
p346
aS'B4-1'
p347
aS'E5+1'
p348
asS'+o++:'
p349
(lp350
S'M1+1'
p351
aS'M2-1'
p352
asS':++-o'
p353
(lp354
S'M4+1'
p355
aS'UF4+1'
p356
aS'E5+1'
p357
aS'E5-1'
p358
asS':o+o+'
p359
(lp360
S'B1-1'
p361
aS'M4+1'
p362
asS'o+o:o'
p363
(lp364
S'E0+1'
p365
aS'E0-1'
p366
aS'E5+1'
p367
asS'-o+o:'
p368
(lp369
S'M1-1'
p370
aS'F4+1'
p371
asS'o-+:+'
p372
(lp373
S'E0+1'
p374
aS'M1+1'
p375
aS'E5-1'
p376
asS'+:+++'
p377
(lp378
S'E0-1'
p379
aS'E5-1'
p380
asS'+:++-'
p381
(lp382
S'E0-1'
p383
aS'E5+1'
p384
asS'-++:+'
p385
(lp386
S'E0+1'
p387
aS'E5-1'
p388
asS':+o-o'
p389
(lp390
S'M2-1'
p391
aS'UF4+1'
p392
aS'E5+1'
p393
asS'o++o:'
p394
(lp395
S'E0+1'
p396
aS'E0-1'
p397
aS'UB0-1'
p398
aS'M1-1'
p399
aS'M3+1'
p400
aS'F4+1'
p401
asS':o+-o'
p402
(lp403
S'UF0+1'
p404
aS'B1-1'
p405
aS'M2+1'
p406
aS'M4+1'
p407
aS'E5+1'
p408
asS'-+o:o'
p409
(lp410
S'E0+1'
p411
aS'M2+1'
p412
aS'E5+1'
p413
asS'o+-+:'
p414
(lp415
S'E0+1'
p416
aS'E0-1'
p417
aS'UB0-1'
p418
aS'M1-1'
p419
asS'+o-+:'
p420
(lp421
S'M1+1'
p422
aS'M2+1'
p423
asS'-o+:+'
p424
(lp425
S'M1-1'
p426
aS'M2-1'
p427
aS'E5-1'
p428
asS'o+o:+'
p429
(lp430
S'E0+1'
p431
aS'E0-1'
p432
aS'F3+1'
p433
aS'E5-1'
p434
asS':++--'
p435
(lp436
S'E5+1'
p437
asS':++-+'
p438
(lp439
S'E5-1'
p440
asS'o-+:o'
p441
(lp442
S'E0+1'
p443
aS'M1+1'
p444
aS'B4-1'
p445
aS'E5+1'
p446
asS'+:+o-'
p447
(lp448
S'E0-1'
p449
aS'M3-1'
p450
aS'M4-1'
p451
asS'+:+o+'
p452
(lp453
S'E0-1'
p454
aS'M3-1'
p455
aS'M4+1'
p456
asS'+o+:+'
p457
(lp458
S'M1+1'
p459
aS'M2-1'
p460
aS'E5-1'
p461
asS'+:o+o'
p462
(lp463
S'E0-1'
p464
aS'B2-1'
p465
aS'E5+1'
p466
aS'E5-1'
p467
asS'o++:+'
p468
(lp469
S'E0+1'
p470
aS'E0-1'
p471
aS'M1-1'
p472
aS'E5-1'
p473
asS'++++:'
p474
(lp475
S'E0-1'
p476
asS'o-++:'
p477
(lp478
S'E0+1'
p479
aS'E0-1'
p480
aS'UB0-1'
p481
aS'M1+1'
p482
asS'++-+:'
p483
(lp484
S'E0-1'
p485
asS'-+-+:'
p486
(lp487
S'E0+1'
p488
asS'+o:++'
p489
(lp490
S'M1+1'
p491
aS'F2+1'
p492
aS'E5-1'
p493
asS'+o+:o'
p494
(lp495
S'M1+1'
p496
aS'M2-1'
p497
aS'B4-1'
p498
aS'E5+1'
p499
asS'+-+:+'
p500
(lp501
S'E0-1'
p502
aS'E5-1'
p503
asS'o++:o'
p504
(lp505
S'E0+1'
p506
aS'E0-1'
p507
aS'M1-1'
p508
aS'B4-1'
p509
aS'E5+1'
p510
asS'+:o+-'
p511
(lp512
S'E0-1'
p513
aS'B2-1'
p514
aS'M3+1'
p515
aS'E5+1'
p516
asS'+:o++'
p517
(lp518
S'E0-1'
p519
aS'B2-1'
p520
aS'M3+1'
p521
aS'E5-1'
p522
as.