(dp0
S'o-o--+++:'
p1
(lp2
S'E0+1'
p3
aS'UB0-1'
p4
aS'M1+1'
p5
aS'M2-1'
p6
aS'M3+1'
p7
aS'H5-1'
p8
asS'oo+-+o+:+'
p9
(lp10
S'E0+1'
p11
aS'E0-1'
p12
aS'H1-1'
p13
aS'H1+1'
p14
aS'M2-1'
p15
aS'M5+1'
p16
aS'M6-1'
p17
aS'E9-1'
p18
asS'o-o+:o++o'
p19
(lp20
S'E0+1'
p21
aS'M1+1'
p22
aS'M2-1'
p23
aS'M3-1'
p24
aS'B5-1'
p25
aS'M6+1'
p26
aS'M8-1'
p27
aS'E9+1'
p28
aS'E9-1'
p29
asS'+o-oo+:+o'
p30
(lp31
S'E0-1'
p32
aS'M1+1'
p33
aS'M3-1'
p34
aS'H4-1'
p35
aS'H4+1'
p36
aS'M5-1'
p37
aS'M8-1'
p38
aS'E9+1'
p39
aS'E9-1'
p40
asS'+o-o+++:o'
p41
(lp42
S'E0-1'
p43
aS'M1+1'
p44
aS'M2+1'
p45
aS'M3-1'
p46
aS'M4-1'
p47
aS'B8-1'
p48
aS'E9+1'
p49
asS'+-++-+:+-'
p50
(lp51
S'E0-1'
p52
aS'H1+1'
p53
aS'H2-1'
p54
aS'H4+1'
p55
aS'H5-1'
p56
aS'H8-1'
p57
aS'E9+1'
p58
asS'---o++o+:'
p59
(lp60
S'E0+1'
p61
aS'M3-1'
p62
aS'M4-1'
p63
aS'M6+1'
p64
aS'M7-1'
p65
asS'++-oo+o:+'
p66
(lp67
S'E0-1'
p68
aS'M3-1'
p69
aS'H4-1'
p70
aS'H4+1'
p71
aS'M5-1'
p72
aS'F7+1'
p73
aS'E9-1'
p74
asS'o-o-oo++:'
p75
(lp76
S'E0+1'
p77
aS'UB0-1'
p78
aS'M1+1'
p79
aS'M2-1'
p80
aS'M4-1'
p81
aS'H5-1'
p82
aS'H5+1'
p83
aS'M6-1'
p84
asS'++o++:o++'
p85
(lp86
S'E0-1'
p87
aS'M2+1'
p88
aS'M3-1'
p89
aS'B6-1'
p90
aS'M7+1'
p91
aS'E9-1'
p92
asS'+o:o++oo+'
p93
(lp94
S'E0-1'
p95
aS'M1+1'
p96
aS'F2+1'
p97
aS'B3-1'
p98
aS'M4+1'
p99
aS'M6-1'
p100
aS'H7-1'
p101
aS'H7+1'
p102
aS'M8+1'
p103
asS'++-o+:+-+'
p104
(lp105
S'E0-1'
p106
aS'M3-1'
p107
aS'M4-1'
p108
aS'H7-1'
p109
aS'H8+1'
p110
aS'E9-1'
p111
asS'+o+-++o:+'
p112
(lp113
S'E0-1'
p114
aS'M1+1'
p115
aS'M2-1'
p116
aS'H4-1'
p117
aS'M6+1'
p118
aS'F7+1'
p119
aS'E9-1'
p120
asS'o+-o+o+o:'
p121
(lp122
S'E0+1'
p123
aS'E0-1'
p124
aS'UB0-1'
p125
aS'M1-1'
p126
aS'M3-1'
p127
aS'M4-1'
p128
aS'M5+1'
p129
aS'M6-1'
p130
aS'M7+1'
p131
aS'F8+1'
p132
asS'-+o++o:o+'
p133
(lp134
S'E0+1'
p135
aS'M2+1'
p136
aS'M3-1'
p137
aS'M5+1'
p138
aS'F6+1'
p139
aS'B7-1'
p140
aS'M8+1'
p141
aS'E9-1'
p142
asS'+oo--++:o'
p143
(lp144
S'M1+1'
p145
aS'H2+1'
p146
aS'M3+1'
p147
aS'H5-1'
p148
aS'B8-1'
p149
aS'E9+1'
p150
asS':++-+--+o'
p151
(lp152
S'M8-1'
p153
aS'UF8+1'
p154
aS'E9+1'
p155
aS'E9-1'
p156
aS'H3-1'
p157
aS'H4+1'
p158
aS'H5-1'
p159
asS'+-oo+:o+o'
p160
(lp161
S'E0-1'
p162
aS'M2-1'
p163
aS'H3-1'
p164
aS'H3+1'
p165
aS'M4-1'
p166
aS'B6-1'
p167
aS'M7+1'
p168
aS'M8-1'
p169
aS'E9+1'
p170
aS'E9-1'
p171
asS'++o:+o-+o'
p172
(lp173
S'E0-1'
p174
aS'M2+1'
p175
aS'F3+1'
p176
aS'M5-1'
p177
aS'M6-1'
p178
aS'M8-1'
p179
aS'E9+1'
p180
aS'E9-1'
p181
asS'o+-oo+o:o'
p182
(lp183
S'E0+1'
p184
aS'E0-1'
p185
aS'M1-1'
p186
aS'M3-1'
p187
aS'H4-1'
p188
aS'H4+1'
p189
aS'M5-1'
p190
aS'F7+1'
p191
aS'B8-1'
p192
aS'E9+1'
p193
asS':oo+o-+oo'
p194
(lp195
S'B1-1'
p196
aS'H2+1'
p197
aS'M3+1'
p198
aS'M5-1'
p199
aS'M7-1'
p200
aS'H8-1'
p201
aS'H8+1'
p202
aS'UF8+1'
p203
aS'E9+1'
p204
aS'E9-1'
p205
asS'oo-oo+oo:'
p206
(lp207
S'E0+1'
p208
aS'UB0-1'
p209
aS'F8+1'
p210
aS'H4-1'
p211
aS'H4+1'
p212
aS'H1+1'
p213
aS'H7+1'
p214
asS'oo--oo++:'
p215
(lp216
S'E0+1'
p217
aS'UB0-1'
p218
aS'H1+1'
p219
aS'M2+1'
p220
aS'M4-1'
p221
aS'H5-1'
p222
aS'H5+1'
p223
aS'M6-1'
p224
asS'o--+oo++:'
p225
(lp226
S'E0+1'
p227
aS'E0-1'
p228
aS'UB0-1'
p229
aS'M1+1'
p230
aS'M4+1'
p231
aS'H5-1'
p232
aS'H5+1'
p233
aS'M6-1'
p234
asS'+o-o+++:+'
p235
(lp236
S'E0-1'
p237
aS'M1+1'
p238
aS'M2+1'
p239
aS'M3-1'
p240
aS'M4-1'
p241
aS'E9-1'
p242
asS'+:o+-++oo'
p243
(lp244
S'E0-1'
p245
aS'B2-1'
p246
aS'M3+1'
p247
aS'H5+1'
p248
aS'M7-1'
p249
aS'H8-1'
p250
aS'H8+1'
p251
aS'E9+1'
p252
aS'E9-1'
p253
asS'o:+-++oo-'
p254
(lp255
S'E0+1'
p256
aS'F1+1'
p257
aS'H3-1'
p258
aS'H4+1'
p259
aS'M6-1'
p260
aS'H7-1'
p261
aS'H7+1'
p262
aS'M8-1'
p263
asS'-+-o++o:o'
p264
(lp265
S'E0+1'
p266
aS'H1-1'
p267
aS'M3-1'
p268
aS'M4-1'
p269
aS'M6+1'
p270
aS'F7+1'
p271
aS'B8-1'
p272
aS'E9+1'
p273
asS'+:++o-o+o'
p274
(lp275
S'E0-1'
p276
aS'M4-1'
p277
aS'M5-1'
p278
aS'M6+1'
p279
aS'M7+1'
p280
aS'M8-1'
p281
aS'E9+1'
p282
aS'E9-1'
p283
asS':++-oo-oo'
p284
(lp285
S'H8+1'
p286
aS'UF8+1'
p287
aS'E9+1'
p288
aS'M4+1'
p289
aS'H5-1'
p290
aS'H5+1'
p291
asS'o+:+-++o-'
p292
(lp293
S'E0+1'
p294
aS'E0-1'
p295
aS'M1-1'
p296
aS'H4-1'
p297
aS'H5+1'
p298
aS'M7-1'
p299
aS'M8-1'
p300
aS'E9+1'
p301
asS':oo++o-++'
p302
(lp303
S'B1-1'
p304
aS'H2+1'
p305
aS'M3+1'
p306
aS'M5-1'
p307
aS'M6-1'
p308
aS'E9-1'
p309
asS':++-oo-++'
p310
(lp311
S'E9-1'
p312
aS'M4+1'
p313
aS'H5-1'
p314
aS'H5+1'
p315
aS'M6-1'
p316
asS'++o:+o-+-'
p317
(lp318
S'E0-1'
p319
aS'M2+1'
p320
aS'F3+1'
p321
aS'M5-1'
p322
aS'M6-1'
p323
aS'H8-1'
p324
aS'E9+1'
p325
asS'+-oo+:o++'
p326
(lp327
S'E0-1'
p328
aS'M2-1'
p329
aS'H3-1'
p330
aS'H3+1'
p331
aS'M4-1'
p332
aS'B6-1'
p333
aS'M7+1'
p334
aS'E9-1'
p335
asS'oo-o-+++:'
p336
(lp337
S'E0+1'
p338
aS'E0-1'
p339
aS'UB0-1'
p340
aS'H1-1'
p341
aS'H1+1'
p342
aS'M2+1'
p343
aS'M4+1'
p344
asS'o+:+-+o++'
p345
(lp346
S'E0+1'
p347
aS'E0-1'
p348
aS'M1-1'
p349
aS'H4-1'
p350
aS'M6-1'
p351
aS'M7+1'
p352
aS'E9-1'
p353
asS'o+o-++oo:'
p354
(lp355
S'E0+1'
p356
aS'E0-1'
p357
aS'UB0-1'
p358
aS'M1-1'
p359
aS'M2+1'
p360
aS'M3+1'
p361
aS'M6+1'
p362
aS'H7+1'
p363
aS'F8+1'
p364
asS'++-o+:o+o'
p365
(lp366
S'E0-1'
p367
aS'M3-1'
p368
aS'M4-1'
p369
aS'B6-1'
p370
aS'M7+1'
p371
aS'M8-1'
p372
aS'E9+1'
p373
aS'E9-1'
p374
asS'o+-o++o:o'
p375
(lp376
S'E0+1'
p377
aS'E0-1'
p378
aS'M1-1'
p379
aS'M3-1'
p380
aS'M4-1'
p381
aS'M6+1'
p382
aS'F7+1'
p383
aS'B8-1'
p384
aS'E9+1'
p385
asS'-+o:+o-+-'
p386
(lp387
S'E0+1'
p388
aS'M2+1'
p389
aS'F3+1'
p390
aS'M5-1'
p391
aS'M6-1'
p392
aS'H8-1'
p393
aS'E9+1'
p394
asS'o-o-++:o+'
p395
(lp396
S'E0+1'
p397
aS'M1+1'
p398
aS'M2-1'
p399
aS'M3+1'
p400
aS'B7-1'
p401
aS'M8+1'
p402
aS'E9-1'
p403
asS'o+-oo+++:'
p404
(lp405
S'E0+1'
p406
aS'E0-1'
p407
aS'UB0-1'
p408
aS'M1-1'
p409
aS'M3-1'
p410
aS'H4-1'
p411
aS'H4+1'
p412
aS'M5-1'
p413
asS'+-o++:oo+'
p414
(lp415
S'E0-1'
p416
aS'M2-1'
p417
aS'M3-1'
p418
aS'B6-1'
p419
aS'H7+1'
p420
aS'M8+1'
p421
asS'oo-+oo++:'
p422
(lp423
S'E0+1'
p424
aS'E0-1'
p425
aS'UB0-1'
p426
aS'H1-1'
p427
aS'H1+1'
p428
aS'M2+1'
p429
aS'M4+1'
p430
aS'H5-1'
p431
aS'H5+1'
p432
aS'M6-1'
p433
asS':++oo-o-+'
p434
(lp435
S'E9-1'
p436
aS'M3-1'
p437
aS'H4-1'
p438
aS'H4+1'
p439
aS'M5-1'
p440
aS'M7-1'
p441
asS'-o--+++:+'
p442
(lp443
S'E0+1'
p444
aS'E9-1'
p445
aS'M2+1'
p446
aS'H4-1'
p447
aS'M1-1'
p448
asS'oo+++:o+o'
p449
(lp450
S'E0+1'
p451
aS'E0-1'
p452
aS'H1-1'
p453
aS'H1+1'
p454
aS'M2-1'
p455
aS'B6-1'
p456
aS'M7+1'
p457
aS'M8-1'
p458
aS'E9+1'
p459
aS'E9-1'
p460
asS'+--++:+-+'
p461
(lp462
S'E0-1'
p463
aS'H1+1'
p464
aS'H3-1'
p465
aS'H7-1'
p466
aS'H8+1'
p467
aS'E9-1'
p468
asS'o-o-o++o:'
p469
(lp470
S'E0+1'
p471
aS'UB0-1'
p472
aS'M1+1'
p473
aS'M2-1'
p474
aS'M3+1'
p475
aS'M4-1'
p476
aS'M5-1'
p477
aS'M7+1'
p478
aS'F8+1'
p479
asS'+--oo++:o'
p480
(lp481
S'E0-1'
p482
aS'H1+1'
p483
aS'M3-1'
p484
aS'H4-1'
p485
aS'H4+1'
p486
aS'M5-1'
p487
aS'B8-1'
p488
aS'E9+1'
p489
asS'-oo+-+oo:'
p490
(lp491
S'M1-1'
p492
aS'H2-1'
p493
aS'H2+1'
p494
aS'M3-1'
p495
aS'M6+1'
p496
aS'H7+1'
p497
aS'F8+1'
p498
asS'o++-o+o:o'
p499
(lp500
S'E0+1'
p501
aS'E0-1'
p502
aS'M1-1'
p503
aS'M4-1'
p504
aS'M5-1'
p505
aS'M6+1'
p506
aS'F7+1'
p507
aS'B8-1'
p508
aS'E9+1'
p509
asS'-+-o+o+:+'
p510
(lp511
S'E0+1'
p512
aS'H1-1'
p513
aS'M3-1'
p514
aS'M4-1'
p515
aS'M5+1'
p516
aS'M6-1'
p517
aS'E9-1'
p518
asS'+o+-+o:o+'
p519
(lp520
S'E0-1'
p521
aS'M1+1'
p522
aS'M2-1'
p523
aS'M5+1'
p524
aS'F6+1'
p525
aS'B7-1'
p526
aS'M8+1'
p527
aS'E9-1'
p528
asS':o+++o-oo'
p529
(lp530
S'B1-1'
p531
aS'M2+1'
p532
aS'M5-1'
p533
aS'M7+1'
p534
aS'H8-1'
p535
aS'H8+1'
p536
aS'UF8+1'
p537
aS'E9+1'
p538
aS'E9-1'
p539
asS'oo+--+o+:'
p540
(lp541
S'E0+1'
p542
aS'E0-1'
p543
aS'UB0-1'
p544
aS'H1-1'
p545
aS'H1+1'
p546
aS'M2-1'
p547
aS'M6+1'
p548
aS'M7-1'
p549
asS'o+oo-o+:o'
p550
(lp551
S'E0+1'
p552
aS'E0-1'
p553
aS'M2+1'
p554
aS'H3+1'
p555
aS'M4+1'
p556
aS'M6-1'
p557
aS'B8-1'
p558
aS'E9+1'
p559
asS'++-++-+:o'
p560
(lp561
S'E0-1'
p562
aS'H2+1'
p563
aS'H3-1'
p564
aS'H5+1'
p565
aS'H6-1'
p566
aS'B8-1'
p567
aS'E9+1'
p568
asS'-+o-o-++:'
p569
(lp570
S'E0+1'
p571
aS'M2+1'
p572
aS'M3+1'
p573
aS'M4-1'
p574
aS'M5+1'
p575
asS':+o+oo--+'
p576
(lp577
S'M2-1'
p578
aS'M4-1'
p579
aS'H5-1'
p580
aS'H5+1'
p581
aS'M6-1'
p582
aS'H8+1'
p583
aS'E9-1'
p584
asS'++o-o+o:+'
p585
(lp586
S'E0-1'
p587
aS'M2+1'
p588
aS'M3+1'
p589
aS'M4-1'
p590
aS'M5-1'
p591
aS'M6+1'
p592
aS'F7+1'
p593
aS'E9-1'
p594
asS'++:+-+o+-'
p595
(lp596
S'E0-1'
p597
aS'E9+1'
p598
aS'H4-1'
p599
aS'M6-1'
p600
aS'M7+1'
p601
asS'-o--+++:o'
p602
(lp603
S'E0+1'
p604
aS'M1-1'
p605
aS'M2+1'
p606
aS'H4-1'
p607
aS'B8-1'
p608
aS'E9+1'
p609
asS':++oo--+-'
p610
(lp611
S'M3-1'
p612
aS'H4-1'
p613
aS'H4+1'
p614
aS'M5-1'
p615
aS'H7+1'
p616
aS'H8-1'
p617
aS'E9+1'
p618
asS'+o--++o+:'
p619
(lp620
S'E0-1'
p621
aS'M1+1'
p622
aS'M2+1'
p623
aS'H4-1'
p624
aS'M6+1'
p625
aS'M7-1'
p626
asS':o+oo+oo-'
p627
(lp628
S'M8-1'
p629
aS'B1-1'
p630
aS'M3-1'
p631
aS'H4-1'
p632
aS'H4+1'
p633
aS'H7-1'
p634
aS'H7+1'
p635
asS'+--++:+-o'
p636
(lp637
S'E0-1'
p638
aS'E9+1'
p639
aS'H3-1'
p640
aS'M8+1'
p641
aS'H1+1'
p642
asS'-+:o+o-+-'
p643
(lp644
S'E0+1'
p645
aS'H1-1'
p646
aS'B3-1'
p647
aS'M4+1'
p648
aS'M5-1'
p649
aS'M6-1'
p650
aS'H8-1'
p651
aS'E9+1'
p652
asS'+o+o--++:'
p653
(lp654
S'E0-1'
p655
aS'M1+1'
p656
aS'M2-1'
p657
aS'M3+1'
p658
aS'M4+1'
p659
aS'H6-1'
p660
asS'++:oo+o++'
p661
(lp662
S'E0-1'
p663
aS'B3-1'
p664
aS'H4+1'
p665
aS'M5+1'
p666
aS'M7+1'
p667
aS'E9-1'
p668
asS'o:++oo-o-'
p669
(lp670
S'E0+1'
p671
aS'F1+1'
p672
aS'M4-1'
p673
aS'H5-1'
p674
aS'H5+1'
p675
aS'M6-1'
p676
aS'M8-1'
p677
aS'E9+1'
p678
asS'oo+o--++:'
p679
(lp680
S'E0+1'
p681
aS'E0-1'
p682
aS'UB0-1'
p683
aS'H1-1'
p684
aS'H1+1'
p685
aS'M2-1'
p686
aS'M4+1'
p687
aS'H6-1'
p688
asS'o--oo++o:'
p689
(lp690
S'E0+1'
p691
aS'UB0-1'
p692
aS'M1+1'
p693
aS'M3-1'
p694
aS'H4-1'
p695
aS'H4+1'
p696
aS'M5-1'
p697
aS'M7+1'
p698
aS'F8+1'
p699
asS'+oo:+o+o+'
p700
(lp701
S'M1+1'
p702
aS'H2+1'
p703
aS'F3+1'
p704
aS'M5-1'
p705
aS'M6+1'
p706
aS'M7-1'
p707
aS'M8+1'
p708
aS'E9-1'
p709
asS'oo+o+oo:o'
p710
(lp711
S'E0+1'
p712
aS'E0-1'
p713
aS'H1-1'
p714
aS'H1+1'
p715
aS'M2-1'
p716
aS'M5+1'
p717
aS'H6+1'
p718
aS'F7+1'
p719
aS'E9+1'
p720
asS'-+oo--++:'
p721
(lp722
S'E0+1'
p723
aS'M2+1'
p724
aS'H3+1'
p725
aS'M4+1'
p726
aS'H6-1'
p727
asS':oo++o-+o'
p728
(lp729
S'B1-1'
p730
aS'H2+1'
p731
aS'M3+1'
p732
aS'M5-1'
p733
aS'M6-1'
p734
aS'M8-1'
p735
aS'UF8+1'
p736
aS'E9+1'
p737
aS'E9-1'
p738
asS'+oo:o+-++'
p739
(lp740
S'M1+1'
p741
aS'H2+1'
p742
aS'F3+1'
p743
aS'M5+1'
p744
aS'H7+1'
p745
aS'E9-1'
p746
asS'--o-+++:o'
p747
(lp748
S'E0+1'
p749
aS'E9+1'
p750
aS'M2-1'
p751
aS'M3+1'
p752
aS'B8-1'
p753
asS':+++--o-o'
p754
(lp755
S'M8+1'
p756
aS'UF8+1'
p757
aS'E9+1'
p758
aS'H4-1'
p759
aS'M6+1'
p760
aS'M7-1'
p761
asS'o+o:oo+oo'
p762
(lp763
S'E0+1'
p764
aS'E0-1'
p765
aS'M1-1'
p766
aS'M2+1'
p767
aS'B4-1'
p768
aS'H5+1'
p769
aS'H8-1'
p770
aS'H8+1'
p771
aS'E9+1'
p772
aS'E9-1'
p773
asS'oo-o+:oo+'
p774
(lp775
S'E0+1'
p776
aS'H1+1'
p777
aS'M2+1'
p778
aS'M4-1'
p779
aS'B6-1'
p780
aS'H7+1'
p781
aS'M8+1'
p782
asS'-++-+:+o-'
p783
(lp784
S'E0+1'
p785
aS'H1-1'
p786
aS'H3+1'
p787
aS'H4-1'
p788
aS'M7-1'
p789
aS'M8-1'
p790
aS'E9+1'
p791
asS'oo-++:+oo'
p792
(lp793
S'E0+1'
p794
aS'E0-1'
p795
aS'H1-1'
p796
aS'H1+1'
p797
aS'M2+1'
p798
aS'M7-1'
p799
aS'H8-1'
p800
aS'H8+1'
p801
aS'E9+1'
p802
aS'E9-1'
p803
asS':+o+-o-o+'
p804
(lp805
S'M2-1'
p806
aS'M3+1'
p807
aS'M5+1'
p808
aS'M6-1'
p809
aS'M7+1'
p810
aS'M8+1'
p811
aS'E9-1'
p812
asS'++:o+o-++'
p813
(lp814
S'E0-1'
p815
aS'B3-1'
p816
aS'M4+1'
p817
aS'M5-1'
p818
aS'M6-1'
p819
aS'E9-1'
p820
asS'+-+oo+:+-'
p821
(lp822
S'E0-1'
p823
aS'H1+1'
p824
aS'M3+1'
p825
aS'H4-1'
p826
aS'H4+1'
p827
aS'M5-1'
p828
aS'H8-1'
p829
aS'E9+1'
p830
asS'+-o+:o+++'
p831
(lp832
S'E0-1'
p833
aS'M2-1'
p834
aS'M3-1'
p835
aS'B5-1'
p836
aS'M6+1'
p837
aS'E9-1'
p838
asS'-o+++:oo+'
p839
(lp840
S'E0+1'
p841
aS'M1-1'
p842
aS'M2-1'
p843
aS'B6-1'
p844
aS'H7+1'
p845
aS'M8+1'
p846
asS'+o+-+:+o-'
p847
(lp848
S'E0-1'
p849
aS'M1+1'
p850
aS'M2-1'
p851
aS'H4-1'
p852
aS'M7-1'
p853
aS'M8-1'
p854
aS'E9+1'
p855
asS'-+o:o+-+o'
p856
(lp857
S'E0+1'
p858
aS'M2+1'
p859
aS'F3+1'
p860
aS'B4-1'
p861
aS'M5+1'
p862
aS'M8-1'
p863
aS'E9+1'
p864
aS'E9-1'
p865
asS'+o-oo+oo:'
p866
(lp867
S'E0-1'
p868
aS'M1+1'
p869
aS'M3-1'
p870
aS'H4-1'
p871
aS'H4+1'
p872
aS'H7+1'
p873
aS'F8+1'
p874
asS'-+:oo++-o'
p875
(lp876
S'E0+1'
p877
aS'H1-1'
p878
aS'B3-1'
p879
aS'H4+1'
p880
aS'M5+1'
p881
aS'M8+1'
p882
aS'E9+1'
p883
aS'E9-1'
p884
asS'+o:oo+oo-'
p885
(lp886
S'E0-1'
p887
aS'M1+1'
p888
aS'B3-1'
p889
aS'H4+1'
p890
aS'H7-1'
p891
aS'H7+1'
p892
aS'M8-1'
p893
asS'++o:o++-+'
p894
(lp895
S'E0-1'
p896
aS'M2+1'
p897
aS'F3+1'
p898
aS'B4-1'
p899
aS'M5+1'
p900
aS'H7-1'
p901
aS'H8+1'
p902
aS'E9-1'
p903
asS'-o+-o-++:'
p904
(lp905
S'E0+1'
p906
aS'M1-1'
p907
aS'M2-1'
p908
aS'M4-1'
p909
aS'M5+1'
p910
asS'-++o:+-oo'
p911
(lp912
S'E0+1'
p913
aS'H1-1'
p914
aS'M3+1'
p915
aS'F4+1'
p916
aS'M7+1'
p917
aS'H8+1'
p918
aS'E9+1'
p919
asS':oo+o+-++'
p920
(lp921
S'B1-1'
p922
aS'H2+1'
p923
aS'M3+1'
p924
aS'M5+1'
p925
aS'H7+1'
p926
aS'E9-1'
p927
asS'o+-++o+:+'
p928
(lp929
S'E0+1'
p930
aS'E0-1'
p931
aS'M1-1'
p932
aS'H3-1'
p933
aS'M5+1'
p934
aS'M6-1'
p935
aS'E9-1'
p936
asS'o--++oo+:'
p937
(lp938
S'E0+1'
p939
aS'E0-1'
p940
aS'UB0-1'
p941
aS'M1+1'
p942
aS'H3-1'
p943
aS'M5+1'
p944
aS'H6-1'
p945
aS'H6+1'
p946
aS'M7-1'
p947
asS'++:oo++-o'
p948
(lp949
S'E0-1'
p950
aS'B3-1'
p951
aS'H4+1'
p952
aS'M5+1'
p953
aS'M8+1'
p954
aS'E9+1'
p955
aS'E9-1'
p956
asS'-++:o+-o+'
p957
(lp958
S'E0+1'
p959
aS'H1-1'
p960
aS'B4-1'
p961
aS'M5+1'
p962
aS'M7+1'
p963
aS'M8+1'
p964
aS'E9-1'
p965
asS'o+o:oo+o-'
p966
(lp967
S'E0+1'
p968
aS'E0-1'
p969
aS'M1-1'
p970
aS'M2+1'
p971
aS'B4-1'
p972
aS'H5+1'
p973
aS'M6+1'
p974
aS'M8-1'
p975
aS'E9+1'
p976
asS'++o:+-o+-'
p977
(lp978
S'E0-1'
p979
aS'M2+1'
p980
aS'F3+1'
p981
aS'M6+1'
p982
aS'M7+1'
p983
aS'E9+1'
p984
asS'+o-+o:o++'
p985
(lp986
S'E0-1'
p987
aS'M1+1'
p988
aS'M2+1'
p989
aS'M4+1'
p990
aS'F5+1'
p991
aS'B6-1'
p992
aS'M7+1'
p993
aS'E9-1'
p994
asS'o-oo+:oo+'
p995
(lp996
S'E0+1'
p997
aS'M2-1'
p998
aS'H3-1'
p999
aS'H3+1'
p1000
aS'M4-1'
p1001
aS'B6-1'
p1002
aS'H7+1'
p1003
aS'M8+1'
p1004
asS'+-+oo+:+o'
p1005
(lp1006
S'E0-1'
p1007
aS'H1+1'
p1008
aS'M3+1'
p1009
aS'H4-1'
p1010
aS'H4+1'
p1011
aS'M5-1'
p1012
aS'M8-1'
p1013
aS'E9+1'
p1014
aS'E9-1'
p1015
asS'-++-+:+oo'
p1016
(lp1017
S'E0+1'
p1018
aS'H1-1'
p1019
aS'H3+1'
p1020
aS'H4-1'
p1021
aS'M7-1'
p1022
aS'H8-1'
p1023
aS'H8+1'
p1024
aS'E9+1'
p1025
aS'E9-1'
p1026
asS'o+-+o++:o'
p1027
(lp1028
S'E0+1'
p1029
aS'E0-1'
p1030
aS'M1-1'
p1031
aS'M4+1'
p1032
aS'M5-1'
p1033
aS'B8-1'
p1034
aS'E9+1'
p1035
asS'++-+oo:o+'
p1036
(lp1037
S'E0-1'
p1038
aS'H2+1'
p1039
aS'M4+1'
p1040
aS'H5+1'
p1041
aS'F6+1'
p1042
aS'M8+1'
p1043
aS'E9-1'
p1044
asS'o++-++o:+'
p1045
(lp1046
S'E0+1'
p1047
aS'E0-1'
p1048
aS'M1-1'
p1049
aS'H3+1'
p1050
aS'H4-1'
p1051
aS'M6+1'
p1052
aS'F7+1'
p1053
aS'E9-1'
p1054
asS':+o+o-o-+'
p1055
(lp1056
S'M2-1'
p1057
aS'M3+1'
p1058
aS'M4-1'
p1059
aS'M5-1'
p1060
aS'M6+1'
p1061
aS'M7-1'
p1062
aS'E9-1'
p1063
asS'o+-o+-o+:'
p1064
(lp1065
S'E0+1'
p1066
aS'E0-1'
p1067
aS'UB0-1'
p1068
aS'M1-1'
p1069
aS'M3-1'
p1070
aS'M4-1'
p1071
aS'M6-1'
p1072
aS'M7-1'
p1073
asS'+o+:o+o++'
p1074
(lp1075
S'E0-1'
p1076
aS'M1+1'
p1077
aS'M2-1'
p1078
aS'B4-1'
p1079
aS'M5+1'
p1080
aS'M6-1'
p1081
aS'M7+1'
p1082
aS'E9-1'
p1083
asS'-o+--o++:'
p1084
(lp1085
S'E0+1'
p1086
aS'M1-1'
p1087
aS'M2-1'
p1088
aS'M5-1'
p1089
aS'M6-1'
p1090
asS'++o:o++-o'
p1091
(lp1092
S'E0-1'
p1093
aS'M2+1'
p1094
aS'F3+1'
p1095
aS'B4-1'
p1096
aS'M5+1'
p1097
aS'M8+1'
p1098
aS'E9+1'
p1099
aS'E9-1'
p1100
asS'o+:oo++-o'
p1101
(lp1102
S'E0+1'
p1103
aS'E0-1'
p1104
aS'M1-1'
p1105
aS'B3-1'
p1106
aS'H4+1'
p1107
aS'M5+1'
p1108
aS'M8+1'
p1109
aS'E9+1'
p1110
aS'E9-1'
p1111
asS'o+-o+:+-+'
p1112
(lp1113
S'E0+1'
p1114
aS'E0-1'
p1115
aS'M1-1'
p1116
aS'M3-1'
p1117
aS'M4-1'
p1118
aS'H7-1'
p1119
aS'H8+1'
p1120
aS'E9-1'
p1121
asS'o+-++o+:o'
p1122
(lp1123
S'E0+1'
p1124
aS'E0-1'
p1125
aS'M1-1'
p1126
aS'H3-1'
p1127
aS'M5+1'
p1128
aS'M6-1'
p1129
aS'B8-1'
p1130
aS'E9+1'
p1131
asS'-++o:+-o+'
p1132
(lp1133
S'E0+1'
p1134
aS'H1-1'
p1135
aS'M3+1'
p1136
aS'F4+1'
p1137
aS'M7+1'
p1138
aS'M8+1'
p1139
aS'E9-1'
p1140
asS'+-o+oo:++'
p1141
(lp1142
S'E0-1'
p1143
aS'M2-1'
p1144
aS'M4+1'
p1145
aS'H5+1'
p1146
aS'F6+1'
p1147
aS'E9-1'
p1148
asS'+:++oo-+-'
p1149
(lp1150
S'E0-1'
p1151
aS'M4-1'
p1152
aS'H5-1'
p1153
aS'H5+1'
p1154
aS'M6-1'
p1155
aS'H8-1'
p1156
aS'E9+1'
p1157
asS'o+o+-+:o+'
p1158
(lp1159
S'E0+1'
p1160
aS'E0-1'
p1161
aS'M1-1'
p1162
aS'M2+1'
p1163
aS'M3-1'
p1164
aS'H5-1'
p1165
aS'B7-1'
p1166
aS'M8+1'
p1167
aS'E9-1'
p1168
asS'++o--++:+'
p1169
(lp1170
S'E0-1'
p1171
aS'E9-1'
p1172
aS'M2+1'
p1173
aS'M3+1'
p1174
aS'H5-1'
p1175
asS'+:++oo-oo'
p1176
(lp1177
S'E0-1'
p1178
aS'E9+1'
p1179
aS'E9-1'
p1180
aS'M4-1'
p1181
aS'H5-1'
p1182
aS'H5+1'
p1183
aS'H8-1'
p1184
aS'H8+1'
p1185
asS'o--oo++:o'
p1186
(lp1187
S'E0+1'
p1188
aS'M1+1'
p1189
aS'M3-1'
p1190
aS'H4-1'
p1191
aS'H4+1'
p1192
aS'M5-1'
p1193
aS'B8-1'
p1194
aS'E9+1'
p1195
asS'+-++-+:oo'
p1196
(lp1197
S'E0-1'
p1198
aS'H1+1'
p1199
aS'H2-1'
p1200
aS'H4+1'
p1201
aS'H5-1'
p1202
aS'B7-1'
p1203
aS'H8+1'
p1204
aS'E9+1'
p1205
asS':+o++-+--'
p1206
(lp1207
S'M2-1'
p1208
aS'M3+1'
p1209
aS'H5-1'
p1210
aS'H6+1'
p1211
aS'H7-1'
p1212
aS'E9+1'
p1213
asS':o+-++oo-'
p1214
(lp1215
S'B1-1'
p1216
aS'M2+1'
p1217
aS'H4+1'
p1218
aS'M6-1'
p1219
aS'H7-1'
p1220
aS'H7+1'
p1221
aS'M8-1'
p1222
asS':o++oo--+'
p1223
(lp1224
S'B1-1'
p1225
aS'M2+1'
p1226
aS'M4-1'
p1227
aS'H5-1'
p1228
aS'H5+1'
p1229
aS'M6-1'
p1230
aS'H8+1'
p1231
aS'E9-1'
p1232
asS'o+o-o+o:o'
p1233
(lp1234
S'E0+1'
p1235
aS'E0-1'
p1236
aS'M1-1'
p1237
aS'M2+1'
p1238
aS'M3+1'
p1239
aS'M4-1'
p1240
aS'M5-1'
p1241
aS'M6+1'
p1242
aS'F7+1'
p1243
aS'B8-1'
p1244
aS'E9+1'
p1245
asS'-+oo:o+oo'
p1246
(lp1247
S'E0+1'
p1248
aS'M2+1'
p1249
aS'H3+1'
p1250
aS'F4+1'
p1251
aS'M7-1'
p1252
aS'H8-1'
p1253
aS'H8+1'
p1254
aS'E9+1'
p1255
aS'E9-1'
p1256
asS'+oo+oo:oo'
p1257
(lp1258
S'H8+1'
p1259
aS'E9+1'
p1260
aS'H2-1'
p1261
aS'H2+1'
p1262
aS'H5+1'
p1263
aS'M1+1'
p1264
asS'-+:oo+-+-'
p1265
(lp1266
S'E0+1'
p1267
aS'H1-1'
p1268
aS'B3-1'
p1269
aS'H4+1'
p1270
aS'M5+1'
p1271
aS'H7+1'
p1272
aS'H8-1'
p1273
aS'E9+1'
p1274
asS'-o+-+:o+o'
p1275
(lp1276
S'E0+1'
p1277
aS'M1-1'
p1278
aS'M2-1'
p1279
aS'H4-1'
p1280
aS'B6-1'
p1281
aS'M7+1'
p1282
aS'M8-1'
p1283
aS'E9+1'
p1284
aS'E9-1'
p1285
asS'o+o-o-++:'
p1286
(lp1287
S'E0+1'
p1288
aS'E0-1'
p1289
aS'UB0-1'
p1290
aS'M1-1'
p1291
aS'M2+1'
p1292
aS'M3+1'
p1293
aS'M4-1'
p1294
aS'M5+1'
p1295
asS'oo+:o+-o+'
p1296
(lp1297
S'E0+1'
p1298
aS'E0-1'
p1299
aS'H1-1'
p1300
aS'H1+1'
p1301
aS'M2-1'
p1302
aS'B4-1'
p1303
aS'M5+1'
p1304
aS'M7+1'
p1305
aS'M8+1'
p1306
aS'E9-1'
p1307
asS'+o+:o+-+-'
p1308
(lp1309
S'E0-1'
p1310
aS'M1+1'
p1311
aS'M2-1'
p1312
aS'B4-1'
p1313
aS'M5+1'
p1314
aS'H7+1'
p1315
aS'H8-1'
p1316
aS'E9+1'
p1317
asS'oo-o++o:o'
p1318
(lp1319
S'E0+1'
p1320
aS'E0-1'
p1321
aS'H1-1'
p1322
aS'H1+1'
p1323
aS'M2+1'
p1324
aS'M4-1'
p1325
aS'M6+1'
p1326
aS'F7+1'
p1327
aS'B8-1'
p1328
aS'E9+1'
p1329
asS'oo--o+++:'
p1330
(lp1331
S'E0+1'
p1332
aS'E0-1'
p1333
aS'UB0-1'
p1334
aS'H1-1'
p1335
aS'H1+1'
p1336
aS'M2+1'
p1337
aS'M4-1'
p1338
aS'M5-1'
p1339
asS'-o+++o:+o'
p1340
(lp1341
S'E0+1'
p1342
aS'M1-1'
p1343
aS'M2-1'
p1344
aS'M5+1'
p1345
aS'F6+1'
p1346
aS'M8-1'
p1347
aS'E9+1'
p1348
aS'E9-1'
p1349
asS':o+o++--o'
p1350
(lp1351
S'B1-1'
p1352
aS'M2+1'
p1353
aS'M3-1'
p1354
aS'M4+1'
p1355
aS'H6-1'
p1356
aS'M8+1'
p1357
aS'UF8+1'
p1358
aS'E9+1'
p1359
aS'E9-1'
p1360
asS'+:+o+-o+o'
p1361
(lp1362
S'E0-1'
p1363
aS'M3-1'
p1364
aS'M4+1'
p1365
aS'M6+1'
p1366
aS'M7+1'
p1367
aS'M8-1'
p1368
aS'E9+1'
p1369
aS'E9-1'
p1370
asS'+oo:oo+o-'
p1371
(lp1372
S'M1+1'
p1373
aS'H2+1'
p1374
aS'H5+1'
p1375
aS'M6+1'
p1376
aS'M8-1'
p1377
aS'E9+1'
p1378
asS'-+o++o:oo'
p1379
(lp1380
S'E0+1'
p1381
aS'M2+1'
p1382
aS'M3-1'
p1383
aS'M5+1'
p1384
aS'B7-1'
p1385
aS'H8+1'
p1386
aS'E9+1'
p1387
asS'+o-o+-o+:'
p1388
(lp1389
S'E0-1'
p1390
aS'M1+1'
p1391
aS'M2+1'
p1392
aS'M3-1'
p1393
aS'M4-1'
p1394
aS'M6-1'
p1395
aS'M7-1'
p1396
asS'o+oo+o+:+'
p1397
(lp1398
S'E0+1'
p1399
aS'E0-1'
p1400
aS'M2+1'
p1401
aS'H3-1'
p1402
aS'H3+1'
p1403
aS'M4-1'
p1404
aS'M6-1'
p1405
aS'E9-1'
p1406
asS'+-o+:oo++'
p1407
(lp1408
S'E0-1'
p1409
aS'M2-1'
p1410
aS'M3-1'
p1411
aS'B5-1'
p1412
aS'H6+1'
p1413
aS'M7+1'
p1414
aS'E9-1'
p1415
asS'+o+++o:++'
p1416
(lp1417
S'E0-1'
p1418
aS'M1+1'
p1419
aS'M2-1'
p1420
aS'M5+1'
p1421
aS'F6+1'
p1422
aS'E9-1'
p1423
asS'+o-+o:o+o'
p1424
(lp1425
S'E0-1'
p1426
aS'M1+1'
p1427
aS'M2+1'
p1428
aS'M4+1'
p1429
aS'F5+1'
p1430
aS'B6-1'
p1431
aS'M7+1'
p1432
aS'M8-1'
p1433
aS'E9+1'
p1434
aS'E9-1'
p1435
asS'o-oo-+++:'
p1436
(lp1437
S'E0+1'
p1438
aS'E0-1'
p1439
aS'UB0-1'
p1440
aS'M2-1'
p1441
aS'H3-1'
p1442
aS'H3+1'
p1443
aS'M4+1'
p1444
asS'+-+-o++:+'
p1445
(lp1446
S'E0-1'
p1447
aS'H1+1'
p1448
aS'H2-1'
p1449
aS'M4-1'
p1450
aS'M5-1'
p1451
aS'E9-1'
p1452
asS'+-++-+:o+'
p1453
(lp1454
S'E0-1'
p1455
aS'H1+1'
p1456
aS'H2-1'
p1457
aS'H4+1'
p1458
aS'H5-1'
p1459
aS'B7-1'
p1460
aS'M8+1'
p1461
aS'E9-1'
p1462
asS'+o+--+o+:'
p1463
(lp1464
S'E0-1'
p1465
aS'M1+1'
p1466
aS'M2-1'
p1467
aS'M6+1'
p1468
aS'M7-1'
p1469
asS'-+oo:o+o-'
p1470
(lp1471
S'E0+1'
p1472
aS'M2+1'
p1473
aS'H3+1'
p1474
aS'F4+1'
p1475
aS'M6+1'
p1476
aS'M7-1'
p1477
aS'M8-1'
p1478
aS'E9+1'
p1479
asS'o+--+++:o'
p1480
(lp1481
S'E0+1'
p1482
aS'E0-1'
p1483
aS'E9+1'
p1484
aS'H4-1'
p1485
aS'B8-1'
p1486
aS'M1-1'
p1487
asS'+oo+oo:o+'
p1488
(lp1489
S'M1+1'
p1490
aS'H2-1'
p1491
aS'H2+1'
p1492
aS'H5+1'
p1493
aS'F6+1'
p1494
aS'M8+1'
p1495
aS'E9-1'
p1496
asS'+-+-++o:+'
p1497
(lp1498
S'E0-1'
p1499
aS'H1+1'
p1500
aS'H2-1'
p1501
aS'H3+1'
p1502
aS'H4-1'
p1503
aS'M6+1'
p1504
aS'F7+1'
p1505
aS'E9-1'
p1506
asS':o+oo-+oo'
p1507
(lp1508
S'B1-1'
p1509
aS'M3-1'
p1510
aS'H4-1'
p1511
aS'H4+1'
p1512
aS'M5-1'
p1513
aS'M7-1'
p1514
aS'H8-1'
p1515
aS'H8+1'
p1516
aS'UF8+1'
p1517
aS'E9+1'
p1518
aS'E9-1'
p1519
asS'+o+:o+-+o'
p1520
(lp1521
S'E0-1'
p1522
aS'M1+1'
p1523
aS'M2-1'
p1524
aS'B4-1'
p1525
aS'M5+1'
p1526
aS'M8-1'
p1527
aS'E9+1'
p1528
aS'E9-1'
p1529
asS'oo+:o+-+-'
p1530
(lp1531
S'E0+1'
p1532
aS'E0-1'
p1533
aS'H1-1'
p1534
aS'H1+1'
p1535
aS'M2-1'
p1536
aS'B4-1'
p1537
aS'M5+1'
p1538
aS'H7+1'
p1539
aS'H8-1'
p1540
aS'E9+1'
p1541
asS'o+-oo-++:'
p1542
(lp1543
S'E0+1'
p1544
aS'E0-1'
p1545
aS'UB0-1'
p1546
aS'M1-1'
p1547
aS'M3-1'
p1548
aS'H4-1'
p1549
aS'H4+1'
p1550
aS'M5+1'
p1551
asS'+o+:o+-o+'
p1552
(lp1553
S'E0-1'
p1554
aS'M1+1'
p1555
aS'M2-1'
p1556
aS'B4-1'
p1557
aS'M5+1'
p1558
aS'M7+1'
p1559
aS'M8+1'
p1560
aS'E9-1'
p1561
asS'++o-oo+:+'
p1562
(lp1563
S'E0-1'
p1564
aS'M2+1'
p1565
aS'M4-1'
p1566
aS'H5-1'
p1567
aS'H5+1'
p1568
aS'M6-1'
p1569
aS'E9-1'
p1570
asS'-o-++oo+:'
p1571
(lp1572
S'E0+1'
p1573
aS'M1-1'
p1574
aS'M2+1'
p1575
aS'M5+1'
p1576
aS'H6-1'
p1577
aS'H6+1'
p1578
aS'M7-1'
p1579
asS':+++o-+oo'
p1580
(lp1581
S'H8-1'
p1582
aS'H8+1'
p1583
aS'UF8+1'
p1584
aS'E9+1'
p1585
aS'E9-1'
p1586
aS'M4-1'
p1587
aS'M5-1'
p1588
aS'M7-1'
p1589
asS'o--++:oo+'
p1590
(lp1591
S'E0+1'
p1592
aS'M1+1'
p1593
aS'H3-1'
p1594
aS'B6-1'
p1595
aS'H7+1'
p1596
aS'M8+1'
p1597
asS'o+-o+o-+:'
p1598
(lp1599
S'E0+1'
p1600
aS'E0-1'
p1601
aS'UB0-1'
p1602
aS'M1-1'
p1603
aS'M3-1'
p1604
aS'M4-1'
p1605
aS'M5+1'
p1606
aS'M6+1'
p1607
asS'o+-+:o+-o'
p1608
(lp1609
S'E0+1'
p1610
aS'E0-1'
p1611
aS'M1-1'
p1612
aS'H3-1'
p1613
aS'B5-1'
p1614
aS'M6+1'
p1615
aS'M8+1'
p1616
aS'E9+1'
p1617
asS'-++o:o+oo'
p1618
(lp1619
S'E0+1'
p1620
aS'H1-1'
p1621
aS'M3+1'
p1622
aS'F4+1'
p1623
aS'B5-1'
p1624
aS'M7-1'
p1625
aS'H8-1'
p1626
aS'H8+1'
p1627
aS'E9+1'
p1628
aS'E9-1'
p1629
asS'o:+-o+o+o'
p1630
(lp1631
S'E0+1'
p1632
aS'F1+1'
p1633
aS'M4+1'
p1634
aS'M5+1'
p1635
aS'M6-1'
p1636
aS'M7+1'
p1637
aS'M8-1'
p1638
aS'E9+1'
p1639
aS'E9-1'
p1640
asS'---++oo+:'
p1641
(lp1642
S'E0+1'
p1643
aS'H3-1'
p1644
aS'M5+1'
p1645
aS'H6-1'
p1646
aS'H6+1'
p1647
aS'M7-1'
p1648
asS':o++--+-+'
p1649
(lp1650
S'B1-1'
p1651
aS'M2+1'
p1652
aS'H4-1'
p1653
aS'H6+1'
p1654
aS'H7-1'
p1655
aS'H8+1'
p1656
aS'E9-1'
p1657
asS'+:o+-+o+o'
p1658
(lp1659
S'E0-1'
p1660
aS'B2-1'
p1661
aS'M3+1'
p1662
aS'M6-1'
p1663
aS'M7+1'
p1664
aS'M8-1'
p1665
aS'E9+1'
p1666
aS'E9-1'
p1667
asS':++-++--+'
p1668
(lp1669
S'H8+1'
p1670
aS'E9-1'
p1671
aS'H3-1'
p1672
aS'H4+1'
p1673
aS'H6-1'
p1674
asS'-o+oo:+o+'
p1675
(lp1676
S'E0+1'
p1677
aS'M1-1'
p1678
aS'M3+1'
p1679
aS'H4+1'
p1680
aS'F5+1'
p1681
aS'M7-1'
p1682
aS'M8+1'
p1683
aS'E9-1'
p1684
asS'+oo:+o-++'
p1685
(lp1686
S'M1+1'
p1687
aS'H2+1'
p1688
aS'F3+1'
p1689
aS'M5-1'
p1690
aS'M6-1'
p1691
aS'E9-1'
p1692
asS'+o:o+oo-o'
p1693
(lp1694
S'E0-1'
p1695
aS'M1+1'
p1696
aS'F2+1'
p1697
aS'B3-1'
p1698
aS'M5-1'
p1699
aS'H6-1'
p1700
aS'H6+1'
p1701
aS'M7-1'
p1702
aS'E9+1'
p1703
asS'oo+:oo+o-'
p1704
(lp1705
S'E0+1'
p1706
aS'E0-1'
p1707
aS'H1-1'
p1708
aS'H1+1'
p1709
aS'M2-1'
p1710
aS'B4-1'
p1711
aS'H5+1'
p1712
aS'M6+1'
p1713
aS'M8-1'
p1714
aS'E9+1'
p1715
asS'-o+o:+-oo'
p1716
(lp1717
S'E0+1'
p1718
aS'M1-1'
p1719
aS'M2-1'
p1720
aS'M3+1'
p1721
aS'F4+1'
p1722
aS'M7+1'
p1723
aS'H8+1'
p1724
aS'E9+1'
p1725
asS'o+-oo+:o+'
p1726
(lp1727
S'E0+1'
p1728
aS'E0-1'
p1729
aS'M1-1'
p1730
aS'M3-1'
p1731
aS'H4-1'
p1732
aS'H4+1'
p1733
aS'M5-1'
p1734
aS'B7-1'
p1735
aS'M8+1'
p1736
aS'E9-1'
p1737
asS'++-o+++:+'
p1738
(lp1739
S'E0-1'
p1740
aS'E9-1'
p1741
aS'M3-1'
p1742
aS'M4-1'
p1743
asS'+o+oo:+oo'
p1744
(lp1745
S'E0-1'
p1746
aS'M1+1'
p1747
aS'M3+1'
p1748
aS'H4+1'
p1749
aS'F5+1'
p1750
aS'M7-1'
p1751
aS'H8-1'
p1752
aS'H8+1'
p1753
aS'E9+1'
p1754
aS'E9-1'
p1755
asS'+-+-+:+o-'
p1756
(lp1757
S'E0-1'
p1758
aS'H1+1'
p1759
aS'H2-1'
p1760
aS'H3+1'
p1761
aS'H4-1'
p1762
aS'M7-1'
p1763
aS'M8-1'
p1764
aS'E9+1'
p1765
asS'+-+-+:++o'
p1766
(lp1767
S'E0-1'
p1768
aS'H1+1'
p1769
aS'H2-1'
p1770
aS'H3+1'
p1771
aS'H4-1'
p1772
aS'M8-1'
p1773
aS'E9+1'
p1774
aS'E9-1'
p1775
asS':+++oo-+-'
p1776
(lp1777
S'H8-1'
p1778
aS'E9+1'
p1779
aS'M4-1'
p1780
aS'H5-1'
p1781
aS'H5+1'
p1782
aS'M6-1'
p1783
asS'--+-o+++:'
p1784
(lp1785
S'E0+1'
p1786
aS'H2-1'
p1787
aS'M4-1'
p1788
aS'M5-1'
p1789
asS'o+-+o:o+o'
p1790
(lp1791
S'E0+1'
p1792
aS'E0-1'
p1793
aS'M1-1'
p1794
aS'M4+1'
p1795
aS'F5+1'
p1796
aS'B6-1'
p1797
aS'M7+1'
p1798
aS'M8-1'
p1799
aS'E9+1'
p1800
aS'E9-1'
p1801
asS'+o+:o+-oo'
p1802
(lp1803
S'E0-1'
p1804
aS'M1+1'
p1805
aS'M2-1'
p1806
aS'B4-1'
p1807
aS'M5+1'
p1808
aS'M7+1'
p1809
aS'H8+1'
p1810
aS'E9+1'
p1811
asS'+:++-o+-+'
p1812
(lp1813
S'E0-1'
p1814
aS'E9-1'
p1815
aS'M5+1'
p1816
aS'M6+1'
p1817
aS'H8+1'
p1818
asS'-+o+:oo+o'
p1819
(lp1820
S'E0+1'
p1821
aS'M2+1'
p1822
aS'M3-1'
p1823
aS'B5-1'
p1824
aS'H6+1'
p1825
aS'M7+1'
p1826
aS'E9+1'
p1827
aS'E9-1'
p1828
asS'o+oo:o+-o'
p1829
(lp1830
S'E0+1'
p1831
aS'E0-1'
p1832
aS'M2+1'
p1833
aS'H3+1'
p1834
aS'F4+1'
p1835
aS'M6+1'
p1836
aS'M8+1'
p1837
aS'E9+1'
p1838
asS'o:+-o+o+-'
p1839
(lp1840
S'E0+1'
p1841
aS'F1+1'
p1842
aS'M4+1'
p1843
aS'M5+1'
p1844
aS'M6-1'
p1845
aS'M7+1'
p1846
aS'E9+1'
p1847
asS'o+-+:o+-+'
p1848
(lp1849
S'E0+1'
p1850
aS'E0-1'
p1851
aS'M1-1'
p1852
aS'H3-1'
p1853
aS'B5-1'
p1854
aS'M6+1'
p1855
aS'H8+1'
p1856
aS'E9-1'
p1857
asS'+---+++o:'
p1858
(lp1859
S'E0-1'
p1860
aS'F8+1'
p1861
aS'H4-1'
p1862
aS'H1+1'
p1863
aS'M7+1'
p1864
asS'oo--+o++:'
p1865
(lp1866
S'E0+1'
p1867
aS'E0-1'
p1868
aS'UB0-1'
p1869
aS'H1-1'
p1870
aS'H1+1'
p1871
aS'M2+1'
p1872
aS'M5+1'
p1873
aS'M6-1'
p1874
asS'o+o-o+-+:'
p1875
(lp1876
S'E0+1'
p1877
aS'E0-1'
p1878
aS'UB0-1'
p1879
aS'M1-1'
p1880
aS'M2+1'
p1881
aS'M3+1'
p1882
aS'M4-1'
p1883
aS'M5-1'
p1884
aS'H7-1'
p1885
asS'-o-o++o:o'
p1886
(lp1887
S'E0+1'
p1888
aS'M1-1'
p1889
aS'M2+1'
p1890
aS'M3-1'
p1891
aS'M4-1'
p1892
aS'M6+1'
p1893
aS'F7+1'
p1894
aS'B8-1'
p1895
aS'E9+1'
p1896
asS'-+-o+o++:'
p1897
(lp1898
S'E0+1'
p1899
aS'H1-1'
p1900
aS'M3-1'
p1901
aS'M4-1'
p1902
aS'M5+1'
p1903
aS'M6-1'
p1904
asS'oo--++:+-'
p1905
(lp1906
S'E0+1'
p1907
aS'H1+1'
p1908
aS'M2+1'
p1909
aS'H4-1'
p1910
aS'H8-1'
p1911
aS'E9+1'
p1912
asS'++-+--++:'
p1913
(lp1914
S'E0-1'
p1915
aS'H2+1'
p1916
aS'H3-1'
p1917
aS'H4+1'
p1918
aS'H6-1'
p1919
asS'o+:oo+o++'
p1920
(lp1921
S'E0+1'
p1922
aS'E0-1'
p1923
aS'M1-1'
p1924
aS'B3-1'
p1925
aS'H4+1'
p1926
aS'M5+1'
p1927
aS'M7+1'
p1928
aS'E9-1'
p1929
asS':++-++--o'
p1930
(lp1931
S'M8+1'
p1932
aS'UF8+1'
p1933
aS'E9+1'
p1934
aS'E9-1'
p1935
aS'H3-1'
p1936
aS'H4+1'
p1937
aS'H6-1'
p1938
asS'+--oo++o:'
p1939
(lp1940
S'E0-1'
p1941
aS'H1+1'
p1942
aS'M3-1'
p1943
aS'H4-1'
p1944
aS'H4+1'
p1945
aS'M5-1'
p1946
aS'M7+1'
p1947
aS'F8+1'
p1948
asS':o++o+-+-'
p1949
(lp1950
S'B1-1'
p1951
aS'M2+1'
p1952
aS'M4-1'
p1953
aS'M5+1'
p1954
aS'H7+1'
p1955
aS'H8-1'
p1956
aS'E9+1'
p1957
asS'+o:+-++oo'
p1958
(lp1959
S'E0-1'
p1960
aS'M1+1'
p1961
aS'F2+1'
p1962
aS'H4-1'
p1963
aS'H5+1'
p1964
aS'M7-1'
p1965
aS'H8-1'
p1966
aS'H8+1'
p1967
aS'E9+1'
p1968
aS'E9-1'
p1969
asS'o+-oo+:oo'
p1970
(lp1971
S'E0+1'
p1972
aS'E0-1'
p1973
aS'M1-1'
p1974
aS'M3-1'
p1975
aS'H4-1'
p1976
aS'H4+1'
p1977
aS'M5-1'
p1978
aS'B7-1'
p1979
aS'H8+1'
p1980
aS'E9+1'
p1981
asS'+o+oo:+o-'
p1982
(lp1983
S'E0-1'
p1984
aS'M1+1'
p1985
aS'M3+1'
p1986
aS'H4+1'
p1987
aS'F5+1'
p1988
aS'M7-1'
p1989
aS'M8-1'
p1990
aS'E9+1'
p1991
asS'----++++:'
p1992
(lp1993
S'E0+1'
p1994
aS'H4-1'
p1995
asS'oo-++:oo+'
p1996
(lp1997
S'E0+1'
p1998
aS'E0-1'
p1999
aS'H1-1'
p2000
aS'H1+1'
p2001
aS'M2+1'
p2002
aS'B6-1'
p2003
aS'H7+1'
p2004
aS'M8+1'
p2005
asS'+:++-o+-o'
p2006
(lp2007
S'E0-1'
p2008
aS'E9+1'
p2009
aS'E9-1'
p2010
aS'M5+1'
p2011
aS'M6+1'
p2012
aS'M8+1'
p2013
asS':o++--+oo'
p2014
(lp2015
S'B1-1'
p2016
aS'M2+1'
p2017
aS'H4-1'
p2018
aS'M7-1'
p2019
aS'H8-1'
p2020
aS'H8+1'
p2021
aS'UF8+1'
p2022
aS'E9+1'
p2023
aS'E9-1'
p2024
asS'+o:oo++oo'
p2025
(lp2026
S'E0-1'
p2027
aS'M1+1'
p2028
aS'B3-1'
p2029
aS'H4+1'
p2030
aS'M5+1'
p2031
aS'M7-1'
p2032
aS'H8-1'
p2033
aS'H8+1'
p2034
aS'E9+1'
p2035
aS'E9-1'
p2036
asS'+---+o++:'
p2037
(lp2038
S'E0-1'
p2039
aS'H1+1'
p2040
aS'M5+1'
p2041
aS'M6-1'
p2042
asS'oo+-o-++:'
p2043
(lp2044
S'E0+1'
p2045
aS'E0-1'
p2046
aS'UB0-1'
p2047
aS'H1-1'
p2048
aS'H1+1'
p2049
aS'M2-1'
p2050
aS'M4-1'
p2051
aS'M5+1'
p2052
asS'o--+-+++:'
p2053
(lp2054
S'E0+1'
p2055
aS'E0-1'
p2056
aS'UB0-1'
p2057
aS'M1+1'
p2058
aS'H3-1'
p2059
aS'H4+1'
p2060
aS'H5-1'
p2061
asS'--+-+o++:'
p2062
(lp2063
S'E0+1'
p2064
aS'H2-1'
p2065
aS'H3+1'
p2066
aS'M5+1'
p2067
aS'M6-1'
p2068
asS'+++o+:o++'
p2069
(lp2070
S'E0-1'
p2071
aS'M3+1'
p2072
aS'M4-1'
p2073
aS'B6-1'
p2074
aS'M7+1'
p2075
aS'E9-1'
p2076
asS'o+o-oo+:o'
p2077
(lp2078
S'E0+1'
p2079
aS'E0-1'
p2080
aS'M1-1'
p2081
aS'M2+1'
p2082
aS'M4-1'
p2083
aS'H5-1'
p2084
aS'H5+1'
p2085
aS'M6-1'
p2086
aS'B8-1'
p2087
aS'E9+1'
p2088
asS':+oo+--+o'
p2089
(lp2090
S'M8-1'
p2091
aS'UF8+1'
p2092
aS'E9+1'
p2093
aS'E9-1'
p2094
aS'M2-1'
p2095
aS'H3-1'
p2096
aS'H3+1'
p2097
aS'M4+1'
p2098
asS'o+oo:+o-+'
p2099
(lp2100
S'E0+1'
p2101
aS'E0-1'
p2102
aS'M2+1'
p2103
aS'H3+1'
p2104
aS'F4+1'
p2105
aS'M6-1'
p2106
aS'M7-1'
p2107
aS'E9-1'
p2108
asS'-+--++-+:'
p2109
(lp2110
S'E0+1'
p2111
aS'H1-1'
p2112
aS'H2+1'
p2113
aS'H4-1'
p2114
aS'H6+1'
p2115
aS'H7-1'
p2116
asS':oo+oo+-o'
p2117
(lp2118
S'B1-1'
p2119
aS'H2+1'
p2120
aS'H5-1'
p2121
aS'H5+1'
p2122
aS'M6+1'
p2123
aS'M8+1'
p2124
aS'UF8+1'
p2125
aS'E9+1'
p2126
aS'E9-1'
p2127
asS'+--oo+o+:'
p2128
(lp2129
S'E0-1'
p2130
aS'H1+1'
p2131
aS'M3-1'
p2132
aS'H4-1'
p2133
aS'H4+1'
p2134
aS'M5-1'
p2135
aS'M7-1'
p2136
asS'++:o+-o+o'
p2137
(lp2138
S'E0-1'
p2139
aS'B3-1'
p2140
aS'M4+1'
p2141
aS'M6+1'
p2142
aS'M7+1'
p2143
aS'M8-1'
p2144
aS'E9+1'
p2145
aS'E9-1'
p2146
asS'-+:+oo-+-'
p2147
(lp2148
S'E0+1'
p2149
aS'H1-1'
p2150
aS'M4-1'
p2151
aS'H5-1'
p2152
aS'H5+1'
p2153
aS'M6-1'
p2154
aS'H8-1'
p2155
aS'E9+1'
p2156
asS':+oo++--o'
p2157
(lp2158
S'M2-1'
p2159
aS'H3-1'
p2160
aS'H3+1'
p2161
aS'M4+1'
p2162
aS'H6-1'
p2163
aS'M8+1'
p2164
aS'UF8+1'
p2165
aS'E9+1'
p2166
aS'E9-1'
p2167
asS'o+o:+-o+o'
p2168
(lp2169
S'E0+1'
p2170
aS'E0-1'
p2171
aS'M1-1'
p2172
aS'M2+1'
p2173
aS'F3+1'
p2174
aS'M6+1'
p2175
aS'M7+1'
p2176
aS'M8-1'
p2177
aS'E9+1'
p2178
aS'E9-1'
p2179
asS'++:o+o-+o'
p2180
(lp2181
S'E0-1'
p2182
aS'B3-1'
p2183
aS'M4+1'
p2184
aS'M5-1'
p2185
aS'M6-1'
p2186
aS'M8-1'
p2187
aS'E9+1'
p2188
aS'E9-1'
p2189
asS'oo-o-o++:'
p2190
(lp2191
S'E0+1'
p2192
aS'UB0-1'
p2193
aS'H1+1'
p2194
aS'M2+1'
p2195
aS'M4+1'
p2196
aS'M5-1'
p2197
aS'M6-1'
p2198
asS'+-oo+o++:'
p2199
(lp2200
S'E0-1'
p2201
aS'M2-1'
p2202
aS'H3-1'
p2203
aS'H3+1'
p2204
aS'M4-1'
p2205
aS'M6-1'
p2206
asS'o+o-+oo:o'
p2207
(lp2208
S'E0+1'
p2209
aS'E0-1'
p2210
aS'M1-1'
p2211
aS'M2+1'
p2212
aS'M3+1'
p2213
aS'M5+1'
p2214
aS'H6+1'
p2215
aS'F7+1'
p2216
aS'E9+1'
p2217
asS'++:oo++-+'
p2218
(lp2219
S'E0-1'
p2220
aS'B3-1'
p2221
aS'H4+1'
p2222
aS'M5+1'
p2223
aS'H7-1'
p2224
aS'H8+1'
p2225
aS'E9-1'
p2226
asS'+o+--++o:'
p2227
(lp2228
S'E0-1'
p2229
aS'M1+1'
p2230
aS'M2-1'
p2231
aS'H5-1'
p2232
aS'M7+1'
p2233
aS'F8+1'
p2234
asS'o+o--++o:'
p2235
(lp2236
S'E0+1'
p2237
aS'E0-1'
p2238
aS'UB0-1'
p2239
aS'M1-1'
p2240
aS'M2+1'
p2241
aS'M3+1'
p2242
aS'H5-1'
p2243
aS'M7+1'
p2244
aS'F8+1'
p2245
asS'-+o-o++:+'
p2246
(lp2247
S'E0+1'
p2248
aS'M2+1'
p2249
aS'M3+1'
p2250
aS'M4-1'
p2251
aS'M5-1'
p2252
aS'E9-1'
p2253
asS'o+o--++:o'
p2254
(lp2255
S'E0+1'
p2256
aS'E0-1'
p2257
aS'M1-1'
p2258
aS'M2+1'
p2259
aS'M3+1'
p2260
aS'H5-1'
p2261
aS'B8-1'
p2262
aS'E9+1'
p2263
asS'+o+o-+o:o'
p2264
(lp2265
S'E0-1'
p2266
aS'M1+1'
p2267
aS'M2-1'
p2268
aS'M3+1'
p2269
aS'M4+1'
p2270
aS'M6+1'
p2271
aS'F7+1'
p2272
aS'B8-1'
p2273
aS'E9+1'
p2274
asS'o-oo-o++:'
p2275
(lp2276
S'E0+1'
p2277
aS'UB0-1'
p2278
aS'M2-1'
p2279
aS'H3-1'
p2280
aS'H3+1'
p2281
aS'M4+1'
p2282
aS'M6-1'
p2283
asS'oo+++o:+o'
p2284
(lp2285
S'E0+1'
p2286
aS'E0-1'
p2287
aS'H1-1'
p2288
aS'H1+1'
p2289
aS'M2-1'
p2290
aS'M5+1'
p2291
aS'F6+1'
p2292
aS'M8-1'
p2293
aS'E9+1'
p2294
aS'E9-1'
p2295
asS'o+:+oo-++'
p2296
(lp2297
S'E0+1'
p2298
aS'E0-1'
p2299
aS'M1-1'
p2300
aS'M4-1'
p2301
aS'H5-1'
p2302
aS'H5+1'
p2303
aS'M6-1'
p2304
aS'E9-1'
p2305
asS'+oo-+-o+:'
p2306
(lp2307
S'M1+1'
p2308
aS'H2+1'
p2309
aS'M3+1'
p2310
aS'M6-1'
p2311
aS'M7-1'
p2312
asS':++o+o-+-'
p2313
(lp2314
S'M3-1'
p2315
aS'M4+1'
p2316
aS'M5-1'
p2317
aS'M6-1'
p2318
aS'H8-1'
p2319
aS'E9+1'
p2320
asS'oo+-+oo:o'
p2321
(lp2322
S'E0+1'
p2323
aS'E0-1'
p2324
aS'H1-1'
p2325
aS'H1+1'
p2326
aS'M2-1'
p2327
aS'M5+1'
p2328
aS'H6+1'
p2329
aS'F7+1'
p2330
aS'E9+1'
p2331
asS'+-+-+o+:+'
p2332
(lp2333
S'E0-1'
p2334
aS'H1+1'
p2335
aS'H2-1'
p2336
aS'H3+1'
p2337
aS'M5+1'
p2338
aS'M6-1'
p2339
aS'E9-1'
p2340
asS'++-oo-++:'
p2341
(lp2342
S'E0-1'
p2343
aS'M3-1'
p2344
aS'H4-1'
p2345
aS'H4+1'
p2346
aS'M5+1'
p2347
asS'-o-o-+++:'
p2348
(lp2349
S'E0+1'
p2350
aS'M1-1'
p2351
aS'M2+1'
p2352
aS'M3-1'
p2353
aS'M4+1'
p2354
asS'o-o++:oo+'
p2355
(lp2356
S'E0+1'
p2357
aS'E0-1'
p2358
aS'M1+1'
p2359
aS'M2-1'
p2360
aS'M3-1'
p2361
aS'B6-1'
p2362
aS'H7+1'
p2363
aS'M8+1'
p2364
asS'+-+-+:o+o'
p2365
(lp2366
S'E0-1'
p2367
aS'H1+1'
p2368
aS'H2-1'
p2369
aS'H3+1'
p2370
aS'H4-1'
p2371
aS'B6-1'
p2372
aS'M7+1'
p2373
aS'M8-1'
p2374
aS'E9+1'
p2375
aS'E9-1'
p2376
asS':+-++o-+o'
p2377
(lp2378
S'H2-1'
p2379
aS'H3+1'
p2380
aS'M5-1'
p2381
aS'M6-1'
p2382
aS'M8-1'
p2383
aS'UF8+1'
p2384
aS'E9+1'
p2385
aS'E9-1'
p2386
asS':+oo++---'
p2387
(lp2388
S'E9+1'
p2389
aS'M2-1'
p2390
aS'H3-1'
p2391
aS'H3+1'
p2392
aS'M4+1'
p2393
aS'H6-1'
p2394
asS'o+oo++o:+'
p2395
(lp2396
S'E0+1'
p2397
aS'E0-1'
p2398
aS'M2+1'
p2399
aS'H3-1'
p2400
aS'H3+1'
p2401
aS'M4-1'
p2402
aS'M6+1'
p2403
aS'F7+1'
p2404
aS'E9-1'
p2405
asS':++oo--oo'
p2406
(lp2407
S'M3-1'
p2408
aS'H4-1'
p2409
aS'H4+1'
p2410
aS'M5-1'
p2411
aS'M7+1'
p2412
aS'H8+1'
p2413
aS'UF8+1'
p2414
aS'E9+1'
p2415
asS'-o--++o+:'
p2416
(lp2417
S'E0+1'
p2418
aS'M1-1'
p2419
aS'M2+1'
p2420
aS'H4-1'
p2421
aS'M6+1'
p2422
aS'M7-1'
p2423
asS'-+-+-+oo:'
p2424
(lp2425
S'E0+1'
p2426
aS'H1-1'
p2427
aS'H2+1'
p2428
aS'H3-1'
p2429
aS'H4+1'
p2430
aS'M6+1'
p2431
aS'H7+1'
p2432
aS'F8+1'
p2433
asS':+oo++--+'
p2434
(lp2435
S'M2-1'
p2436
aS'H3-1'
p2437
aS'H3+1'
p2438
aS'M4+1'
p2439
aS'H6-1'
p2440
aS'H8+1'
p2441
aS'E9-1'
p2442
asS'++oo-+:o+'
p2443
(lp2444
S'E0-1'
p2445
aS'M2+1'
p2446
aS'H3+1'
p2447
aS'M4+1'
p2448
aS'B7-1'
p2449
aS'M8+1'
p2450
aS'E9-1'
p2451
asS'o:+o+-+-+'
p2452
(lp2453
S'E0+1'
p2454
aS'F1+1'
p2455
aS'M3-1'
p2456
aS'M4+1'
p2457
aS'H6+1'
p2458
aS'H7-1'
p2459
aS'H8+1'
p2460
aS'E9-1'
p2461
asS'o+:+-+o+-'
p2462
(lp2463
S'E0+1'
p2464
aS'E0-1'
p2465
aS'M1-1'
p2466
aS'H4-1'
p2467
aS'M6-1'
p2468
aS'M7+1'
p2469
aS'E9+1'
p2470
asS'o+o-+oo:+'
p2471
(lp2472
S'E0+1'
p2473
aS'E0-1'
p2474
aS'M1-1'
p2475
aS'M2+1'
p2476
aS'M3+1'
p2477
aS'M5+1'
p2478
aS'H6+1'
p2479
aS'F7+1'
p2480
aS'E9-1'
p2481
asS'-o-++:+-+'
p2482
(lp2483
S'E0+1'
p2484
aS'M1-1'
p2485
aS'M2+1'
p2486
aS'H7-1'
p2487
aS'H8+1'
p2488
aS'E9-1'
p2489
asS':+oo+-o++'
p2490
(lp2491
S'M2-1'
p2492
aS'H3-1'
p2493
aS'H3+1'
p2494
aS'M4+1'
p2495
aS'M6+1'
p2496
aS'M7+1'
p2497
aS'E9-1'
p2498
asS'o+-oo+-+:'
p2499
(lp2500
S'E0+1'
p2501
aS'E0-1'
p2502
aS'UB0-1'
p2503
aS'M1-1'
p2504
aS'M3-1'
p2505
aS'H4-1'
p2506
aS'H4+1'
p2507
aS'M5-1'
p2508
aS'H7-1'
p2509
asS'+:+-+o+o-'
p2510
(lp2511
S'E0-1'
p2512
aS'H3-1'
p2513
aS'M5-1'
p2514
aS'M6+1'
p2515
aS'M7-1'
p2516
aS'M8-1'
p2517
aS'E9+1'
p2518
asS'oo+++o:++'
p2519
(lp2520
S'E0+1'
p2521
aS'E0-1'
p2522
aS'H1-1'
p2523
aS'H1+1'
p2524
aS'M2-1'
p2525
aS'M5+1'
p2526
aS'F6+1'
p2527
aS'E9-1'
p2528
asS'-++oo:+o-'
p2529
(lp2530
S'E0+1'
p2531
aS'H1-1'
p2532
aS'M3+1'
p2533
aS'H4+1'
p2534
aS'F5+1'
p2535
aS'M7-1'
p2536
aS'M8-1'
p2537
aS'E9+1'
p2538
asS'++-oo+-+:'
p2539
(lp2540
S'E0-1'
p2541
aS'M3-1'
p2542
aS'H4-1'
p2543
aS'H4+1'
p2544
aS'M5-1'
p2545
aS'H7-1'
p2546
asS'oo+oo:+o-'
p2547
(lp2548
S'E0+1'
p2549
aS'E0-1'
p2550
aS'H1-1'
p2551
aS'H1+1'
p2552
aS'H4+1'
p2553
aS'F5+1'
p2554
aS'M7-1'
p2555
aS'M8-1'
p2556
aS'E9+1'
p2557
asS'-+:+o-o+-'
p2558
(lp2559
S'E0+1'
p2560
aS'H1-1'
p2561
aS'M4-1'
p2562
aS'M5-1'
p2563
aS'M6+1'
p2564
aS'M7+1'
p2565
aS'E9+1'
p2566
asS'+o+-+o+:+'
p2567
(lp2568
S'E0-1'
p2569
aS'M1+1'
p2570
aS'M2-1'
p2571
aS'M5+1'
p2572
aS'M6-1'
p2573
aS'E9-1'
p2574
asS'o-o+o:++o'
p2575
(lp2576
S'E0+1'
p2577
aS'M1+1'
p2578
aS'M2-1'
p2579
aS'M3-1'
p2580
aS'M4+1'
p2581
aS'F5+1'
p2582
aS'M8-1'
p2583
aS'E9+1'
p2584
aS'E9-1'
p2585
asS'+-oo+++o:'
p2586
(lp2587
S'E0-1'
p2588
aS'M2-1'
p2589
aS'H3-1'
p2590
aS'H3+1'
p2591
aS'M4-1'
p2592
aS'M7+1'
p2593
aS'F8+1'
p2594
asS'+--++:+oo'
p2595
(lp2596
S'E0-1'
p2597
aS'H1+1'
p2598
aS'H3-1'
p2599
aS'M7-1'
p2600
aS'H8-1'
p2601
aS'H8+1'
p2602
aS'E9+1'
p2603
aS'E9-1'
p2604
asS'--o-o+++:'
p2605
(lp2606
S'E0+1'
p2607
aS'M2-1'
p2608
aS'M3+1'
p2609
aS'M4-1'
p2610
aS'M5-1'
p2611
asS':+o+o--+o'
p2612
(lp2613
S'M2-1'
p2614
aS'M3+1'
p2615
aS'M4-1'
p2616
aS'M5-1'
p2617
aS'M8-1'
p2618
aS'UF8+1'
p2619
aS'E9+1'
p2620
aS'E9-1'
p2621
asS'o--oo+o+:'
p2622
(lp2623
S'E0+1'
p2624
aS'UB0-1'
p2625
aS'M1+1'
p2626
aS'M3-1'
p2627
aS'H4-1'
p2628
aS'H4+1'
p2629
aS'M5-1'
p2630
aS'M7-1'
p2631
asS'oo-+-+:o+'
p2632
(lp2633
S'E0+1'
p2634
aS'H1+1'
p2635
aS'M2+1'
p2636
aS'H4+1'
p2637
aS'H5-1'
p2638
aS'B7-1'
p2639
aS'M8+1'
p2640
aS'E9-1'
p2641
asS'-+--+++:o'
p2642
(lp2643
S'E0+1'
p2644
aS'H1-1'
p2645
aS'H2+1'
p2646
aS'H4-1'
p2647
aS'B8-1'
p2648
aS'E9+1'
p2649
asS'oo-+-+:+o'
p2650
(lp2651
S'E0+1'
p2652
aS'H1+1'
p2653
aS'M2+1'
p2654
aS'H4+1'
p2655
aS'H5-1'
p2656
aS'M8-1'
p2657
aS'E9+1'
p2658
aS'E9-1'
p2659
asS'+oo+-+oo:'
p2660
(lp2661
S'M1+1'
p2662
aS'H2-1'
p2663
aS'H2+1'
p2664
aS'M3-1'
p2665
aS'M6+1'
p2666
aS'H7+1'
p2667
aS'F8+1'
p2668
asS'o+--+oo+:'
p2669
(lp2670
S'E0+1'
p2671
aS'E0-1'
p2672
aS'UB0-1'
p2673
aS'M1-1'
p2674
aS'M5+1'
p2675
aS'H6-1'
p2676
aS'H6+1'
p2677
aS'M7-1'
p2678
asS'+:oo++oo+'
p2679
(lp2680
S'E0-1'
p2681
aS'B2-1'
p2682
aS'H3+1'
p2683
aS'M4+1'
p2684
aS'M6-1'
p2685
aS'H7-1'
p2686
aS'H7+1'
p2687
aS'M8+1'
p2688
asS'o:++-+--o'
p2689
(lp2690
S'E0+1'
p2691
aS'F1+1'
p2692
aS'H4-1'
p2693
aS'H5+1'
p2694
aS'H6-1'
p2695
aS'M8+1'
p2696
aS'E9+1'
p2697
asS'-o+-+:o+-'
p2698
(lp2699
S'E0+1'
p2700
aS'M1-1'
p2701
aS'M2-1'
p2702
aS'H4-1'
p2703
aS'B6-1'
p2704
aS'M7+1'
p2705
aS'E9+1'
p2706
asS'-+o--o++:'
p2707
(lp2708
S'E0+1'
p2709
aS'M2+1'
p2710
aS'M3+1'
p2711
aS'M5-1'
p2712
aS'M6-1'
p2713
asS'o+oo:o+oo'
p2714
(lp2715
S'E0+1'
p2716
aS'E0-1'
p2717
aS'M2+1'
p2718
aS'H3+1'
p2719
aS'F4+1'
p2720
aS'M7-1'
p2721
aS'H8-1'
p2722
aS'H8+1'
p2723
aS'E9+1'
p2724
aS'E9-1'
p2725
asS'--+-+o+o:'
p2726
(lp2727
S'E0+1'
p2728
aS'H2-1'
p2729
aS'H3+1'
p2730
aS'M5+1'
p2731
aS'M6-1'
p2732
aS'M7+1'
p2733
aS'F8+1'
p2734
asS'-++oo:+oo'
p2735
(lp2736
S'E0+1'
p2737
aS'H1-1'
p2738
aS'M3+1'
p2739
aS'H4+1'
p2740
aS'F5+1'
p2741
aS'M7-1'
p2742
aS'H8-1'
p2743
aS'H8+1'
p2744
aS'E9+1'
p2745
aS'E9-1'
p2746
asS'+oo:++oo+'
p2747
(lp2748
S'M1+1'
p2749
aS'H2+1'
p2750
aS'F3+1'
p2751
aS'M6-1'
p2752
aS'H7-1'
p2753
aS'H7+1'
p2754
aS'M8+1'
p2755
asS'++o-oo+:o'
p2756
(lp2757
S'E0-1'
p2758
aS'M2+1'
p2759
aS'M4-1'
p2760
aS'H5-1'
p2761
aS'H5+1'
p2762
aS'M6-1'
p2763
aS'B8-1'
p2764
aS'E9+1'
p2765
asS'o--oo+++:'
p2766
(lp2767
S'E0+1'
p2768
aS'E0-1'
p2769
aS'UB0-1'
p2770
aS'M1+1'
p2771
aS'M3-1'
p2772
aS'H4-1'
p2773
aS'H4+1'
p2774
aS'M5-1'
p2775
asS':++oo-oo-'
p2776
(lp2777
S'M8-1'
p2778
aS'M3-1'
p2779
aS'H4-1'
p2780
aS'H4+1'
p2781
aS'H7-1'
p2782
aS'H7+1'
p2783
asS'o+o-+:o+o'
p2784
(lp2785
S'E0+1'
p2786
aS'E0-1'
p2787
aS'M1-1'
p2788
aS'M2+1'
p2789
aS'M3+1'
p2790
aS'B6-1'
p2791
aS'M7+1'
p2792
aS'M8-1'
p2793
aS'E9+1'
p2794
aS'E9-1'
p2795
asS'oo-+--++:'
p2796
(lp2797
S'E0+1'
p2798
aS'UB0-1'
p2799
aS'H1+1'
p2800
aS'M2+1'
p2801
aS'H4+1'
p2802
aS'H6-1'
p2803
asS'+-oo+++:o'
p2804
(lp2805
S'E0-1'
p2806
aS'M2-1'
p2807
aS'H3-1'
p2808
aS'H3+1'
p2809
aS'M4-1'
p2810
aS'B8-1'
p2811
aS'E9+1'
p2812
asS':o++oo-++'
p2813
(lp2814
S'B1-1'
p2815
aS'M2+1'
p2816
aS'M4-1'
p2817
aS'H5-1'
p2818
aS'H5+1'
p2819
aS'M6-1'
p2820
aS'E9-1'
p2821
asS'oo-oo+:+o'
p2822
(lp2823
S'E0+1'
p2824
aS'H1+1'
p2825
aS'H4-1'
p2826
aS'H4+1'
p2827
aS'M5-1'
p2828
aS'M8-1'
p2829
aS'E9+1'
p2830
aS'E9-1'
p2831
asS'o:o+o+-++'
p2832
(lp2833
S'E0+1'
p2834
aS'F1+1'
p2835
aS'B2-1'
p2836
aS'M3+1'
p2837
aS'M4-1'
p2838
aS'M5+1'
p2839
aS'H7+1'
p2840
aS'E9-1'
p2841
asS'-+--+++:+'
p2842
(lp2843
S'E0+1'
p2844
aS'E9-1'
p2845
aS'H2+1'
p2846
aS'H4-1'
p2847
aS'H1-1'
p2848
asS'o---++o+:'
p2849
(lp2850
S'E0+1'
p2851
aS'UB0-1'
p2852
aS'M1+1'
p2853
aS'H4-1'
p2854
aS'M6+1'
p2855
aS'M7-1'
p2856
asS'+:o+-o+++'
p2857
(lp2858
S'E0-1'
p2859
aS'B2-1'
p2860
aS'M3+1'
p2861
aS'M5+1'
p2862
aS'M6+1'
p2863
aS'E9-1'
p2864
asS'oo--++o+:'
p2865
(lp2866
S'E0+1'
p2867
aS'E0-1'
p2868
aS'UB0-1'
p2869
aS'H1-1'
p2870
aS'H1+1'
p2871
aS'M2+1'
p2872
aS'H4-1'
p2873
aS'M6+1'
p2874
aS'M7-1'
p2875
asS':+o+o--+-'
p2876
(lp2877
S'M2-1'
p2878
aS'M3+1'
p2879
aS'M4-1'
p2880
aS'M5-1'
p2881
aS'H7+1'
p2882
aS'H8-1'
p2883
aS'E9+1'
p2884
asS':+o+o-o-o'
p2885
(lp2886
S'M2-1'
p2887
aS'M3+1'
p2888
aS'M4-1'
p2889
aS'M5-1'
p2890
aS'M6+1'
p2891
aS'M7-1'
p2892
aS'M8+1'
p2893
aS'UF8+1'
p2894
aS'E9+1'
p2895
asS'o:+-+oo+-'
p2896
(lp2897
S'E0+1'
p2898
aS'F1+1'
p2899
aS'H3-1'
p2900
aS'M5-1'
p2901
aS'H6-1'
p2902
aS'H6+1'
p2903
aS'M7+1'
p2904
aS'E9+1'
p2905
asS'o+-+++o:+'
p2906
(lp2907
S'E0+1'
p2908
aS'E0-1'
p2909
aS'M1-1'
p2910
aS'H3-1'
p2911
aS'M6+1'
p2912
aS'F7+1'
p2913
aS'E9-1'
p2914
asS'o+--++:oo'
p2915
(lp2916
S'E0+1'
p2917
aS'E0-1'
p2918
aS'M1-1'
p2919
aS'H4-1'
p2920
aS'B7-1'
p2921
aS'H8+1'
p2922
aS'E9+1'
p2923
asS':+oo++o-o'
p2924
(lp2925
S'M2-1'
p2926
aS'H3-1'
p2927
aS'H3+1'
p2928
aS'M4+1'
p2929
aS'M6-1'
p2930
aS'M7-1'
p2931
aS'M8+1'
p2932
aS'UF8+1'
p2933
aS'E9+1'
p2934
aS'E9-1'
p2935
asS'oo+oo:+oo'
p2936
(lp2937
S'E0+1'
p2938
aS'E0-1'
p2939
aS'H1-1'
p2940
aS'H1+1'
p2941
aS'H4+1'
p2942
aS'F5+1'
p2943
aS'M7-1'
p2944
aS'H8-1'
p2945
aS'H8+1'
p2946
aS'E9+1'
p2947
aS'E9-1'
p2948
asS'o++oo:+-o'
p2949
(lp2950
S'E0+1'
p2951
aS'E0-1'
p2952
aS'M1-1'
p2953
aS'M3+1'
p2954
aS'H4+1'
p2955
aS'F5+1'
p2956
aS'M8+1'
p2957
aS'E9+1'
p2958
asS'o-+-+:o+o'
p2959
(lp2960
S'E0+1'
p2961
aS'M1+1'
p2962
aS'H3+1'
p2963
aS'H4-1'
p2964
aS'B6-1'
p2965
aS'M7+1'
p2966
aS'M8-1'
p2967
aS'E9+1'
p2968
aS'E9-1'
p2969
asS'oo-oo-++:'
p2970
(lp2971
S'E0+1'
p2972
aS'UB0-1'
p2973
aS'H1+1'
p2974
aS'H4-1'
p2975
aS'H4+1'
p2976
aS'M5+1'
p2977
asS'o++o-+:o+'
p2978
(lp2979
S'E0+1'
p2980
aS'E0-1'
p2981
aS'M1-1'
p2982
aS'M3+1'
p2983
aS'M4+1'
p2984
aS'B7-1'
p2985
aS'M8+1'
p2986
aS'E9-1'
p2987
asS'-+oo:+-+o'
p2988
(lp2989
S'E0+1'
p2990
aS'M2+1'
p2991
aS'H3+1'
p2992
aS'F4+1'
p2993
aS'H6-1'
p2994
aS'M8-1'
p2995
aS'E9+1'
p2996
aS'E9-1'
p2997
asS'o+o:o+-+-'
p2998
(lp2999
S'E0+1'
p3000
aS'E0-1'
p3001
aS'M1-1'
p3002
aS'M2+1'
p3003
aS'F3+1'
p3004
aS'B4-1'
p3005
aS'M5+1'
p3006
aS'H7+1'
p3007
aS'H8-1'
p3008
aS'E9+1'
p3009
asS':++--oo++'
p3010
(lp3011
S'E9-1'
p3012
aS'H3-1'
p3013
aS'M5+1'
p3014
aS'H6+1'
p3015
aS'M7+1'
p3016
asS'+o-oo+++:'
p3017
(lp3018
S'E0-1'
p3019
aS'M1+1'
p3020
aS'M3-1'
p3021
aS'H4-1'
p3022
aS'H4+1'
p3023
aS'M5-1'
p3024
asS'+:++o-+oo'
p3025
(lp3026
S'E0-1'
p3027
aS'M4-1'
p3028
aS'M5-1'
p3029
aS'M7-1'
p3030
aS'H8-1'
p3031
aS'H8+1'
p3032
aS'E9+1'
p3033
aS'E9-1'
p3034
asS'++o:o++oo'
p3035
(lp3036
S'E0-1'
p3037
aS'M2+1'
p3038
aS'F3+1'
p3039
aS'B4-1'
p3040
aS'M5+1'
p3041
aS'M7-1'
p3042
aS'H8-1'
p3043
aS'H8+1'
p3044
aS'E9+1'
p3045
aS'E9-1'
p3046
asS'o+oo+-+:o'
p3047
(lp3048
S'E0+1'
p3049
aS'E0-1'
p3050
aS'M2+1'
p3051
aS'H3-1'
p3052
aS'H3+1'
p3053
aS'M4-1'
p3054
aS'H6-1'
p3055
aS'B8-1'
p3056
aS'E9+1'
p3057
asS'-+:+-+o-o'
p3058
(lp3059
S'E0+1'
p3060
aS'H1-1'
p3061
aS'H4-1'
p3062
aS'M6-1'
p3063
aS'M7-1'
p3064
aS'M8+1'
p3065
aS'E9+1'
p3066
asS'o+o++o:++'
p3067
(lp3068
S'E0+1'
p3069
aS'E0-1'
p3070
aS'M1-1'
p3071
aS'M2+1'
p3072
aS'M3-1'
p3073
aS'M5+1'
p3074
aS'F6+1'
p3075
aS'E9-1'
p3076
asS':o+oo+-+o'
p3077
(lp3078
S'B1-1'
p3079
aS'M3-1'
p3080
aS'H4-1'
p3081
aS'H4+1'
p3082
aS'M5+1'
p3083
aS'M8-1'
p3084
aS'UF8+1'
p3085
aS'E9+1'
p3086
aS'E9-1'
p3087
asS'o-+:o+-+-'
p3088
(lp3089
S'E0+1'
p3090
aS'M1+1'
p3091
aS'B4-1'
p3092
aS'M5+1'
p3093
aS'H7+1'
p3094
aS'H8-1'
p3095
aS'E9+1'
p3096
asS'o-+:o+-oo'
p3097
(lp3098
S'E0+1'
p3099
aS'M1+1'
p3100
aS'B4-1'
p3101
aS'M5+1'
p3102
aS'M7+1'
p3103
aS'H8+1'
p3104
aS'E9+1'
p3105
asS'+:oo++-++'
p3106
(lp3107
S'E0-1'
p3108
aS'B2-1'
p3109
aS'H3+1'
p3110
aS'M4+1'
p3111
aS'H6-1'
p3112
aS'H7+1'
p3113
aS'E9-1'
p3114
asS'++o-o+:o+'
p3115
(lp3116
S'E0-1'
p3117
aS'M2+1'
p3118
aS'M3+1'
p3119
aS'M4-1'
p3120
aS'M5-1'
p3121
aS'B7-1'
p3122
aS'M8+1'
p3123
aS'E9-1'
p3124
asS'---oo+++:'
p3125
(lp3126
S'E0+1'
p3127
aS'M3-1'
p3128
aS'H4-1'
p3129
aS'H4+1'
p3130
aS'M5-1'
p3131
asS'+o-oo-++:'
p3132
(lp3133
S'E0-1'
p3134
aS'M1+1'
p3135
aS'M3-1'
p3136
aS'H4-1'
p3137
aS'H4+1'
p3138
aS'M5+1'
p3139
asS':+oo++o--'
p3140
(lp3141
S'M2-1'
p3142
aS'H3-1'
p3143
aS'H3+1'
p3144
aS'M4+1'
p3145
aS'M6-1'
p3146
aS'M7-1'
p3147
aS'E9+1'
p3148
asS'-o+-+o:o+'
p3149
(lp3150
S'E0+1'
p3151
aS'M1-1'
p3152
aS'M2-1'
p3153
aS'M5+1'
p3154
aS'F6+1'
p3155
aS'B7-1'
p3156
aS'M8+1'
p3157
aS'E9-1'
p3158
asS':+-++o-++'
p3159
(lp3160
S'E9-1'
p3161
aS'H2-1'
p3162
aS'H3+1'
p3163
aS'M5-1'
p3164
aS'M6-1'
p3165
asS'-o+-+o++:'
p3166
(lp3167
S'E0+1'
p3168
aS'M1-1'
p3169
aS'M2-1'
p3170
aS'M5+1'
p3171
aS'M6-1'
p3172
asS'oo:+o-o++'
p3173
(lp3174
S'E0+1'
p3175
aS'H1+1'
p3176
aS'F2+1'
p3177
aS'M4-1'
p3178
aS'M5-1'
p3179
aS'M6+1'
p3180
aS'M7+1'
p3181
aS'E9-1'
p3182
asS':+o++o-oo'
p3183
(lp3184
S'M2-1'
p3185
aS'M3+1'
p3186
aS'M5-1'
p3187
aS'M7+1'
p3188
aS'H8-1'
p3189
aS'H8+1'
p3190
aS'UF8+1'
p3191
aS'E9+1'
p3192
aS'E9-1'
p3193
asS'+oo-+oo:o'
p3194
(lp3195
S'M1+1'
p3196
aS'H2+1'
p3197
aS'M3+1'
p3198
aS'M5+1'
p3199
aS'H6+1'
p3200
aS'F7+1'
p3201
aS'E9+1'
p3202
asS'o++o-+:oo'
p3203
(lp3204
S'E0+1'
p3205
aS'E0-1'
p3206
aS'M1-1'
p3207
aS'M3+1'
p3208
aS'M4+1'
p3209
aS'B7-1'
p3210
aS'H8+1'
p3211
aS'E9+1'
p3212
asS'-+oo:+-++'
p3213
(lp3214
S'E0+1'
p3215
aS'M2+1'
p3216
aS'H3+1'
p3217
aS'F4+1'
p3218
aS'H6-1'
p3219
aS'H7+1'
p3220
aS'E9-1'
p3221
asS':oo+o-o++'
p3222
(lp3223
S'B1-1'
p3224
aS'H2+1'
p3225
aS'M3+1'
p3226
aS'M5-1'
p3227
aS'M6+1'
p3228
aS'M7+1'
p3229
aS'E9-1'
p3230
asS'o:+o+oo-o'
p3231
(lp3232
S'E0+1'
p3233
aS'F1+1'
p3234
aS'M3-1'
p3235
aS'M5-1'
p3236
aS'H6-1'
p3237
aS'H6+1'
p3238
aS'M7-1'
p3239
aS'E9+1'
p3240
aS'E9-1'
p3241
asS':++--oo+o'
p3242
(lp3243
S'H3-1'
p3244
aS'M5+1'
p3245
aS'H6+1'
p3246
aS'M7+1'
p3247
aS'UF8+1'
p3248
aS'E9+1'
p3249
aS'E9-1'
p3250
asS'o:++oo-oo'
p3251
(lp3252
S'E0+1'
p3253
aS'F1+1'
p3254
aS'M4-1'
p3255
aS'H5-1'
p3256
aS'H5+1'
p3257
aS'H8-1'
p3258
aS'H8+1'
p3259
aS'E9+1'
p3260
aS'E9-1'
p3261
asS'oo+o-+oo:'
p3262
(lp3263
S'E0+1'
p3264
aS'E0-1'
p3265
aS'UB0-1'
p3266
aS'H1-1'
p3267
aS'H1+1'
p3268
aS'M2-1'
p3269
aS'M4+1'
p3270
aS'M6+1'
p3271
aS'H7+1'
p3272
aS'F8+1'
p3273
asS'oo+o-oo+:'
p3274
(lp3275
S'E0+1'
p3276
aS'E0-1'
p3277
aS'UB0-1'
p3278
aS'H1-1'
p3279
aS'H1+1'
p3280
aS'M2-1'
p3281
aS'M5-1'
p3282
aS'H6-1'
p3283
aS'H6+1'
p3284
aS'M7-1'
p3285
asS'++-+o:oo+'
p3286
(lp3287
S'E0-1'
p3288
aS'H2+1'
p3289
aS'M4+1'
p3290
aS'B6-1'
p3291
aS'H7+1'
p3292
aS'M8+1'
p3293
asS'o-+:o+-+o'
p3294
(lp3295
S'E0+1'
p3296
aS'M1+1'
p3297
aS'B4-1'
p3298
aS'M5+1'
p3299
aS'M8-1'
p3300
aS'E9+1'
p3301
aS'E9-1'
p3302
asS'-o+:o+-++'
p3303
(lp3304
S'E0+1'
p3305
aS'M1-1'
p3306
aS'M2-1'
p3307
aS'B4-1'
p3308
aS'M5+1'
p3309
aS'H7+1'
p3310
aS'E9-1'
p3311
asS'-oo-++:+o'
p3312
(lp3313
S'M8-1'
p3314
aS'E9+1'
p3315
aS'E9-1'
p3316
aS'H2-1'
p3317
aS'H2+1'
p3318
aS'M3+1'
p3319
aS'M1-1'
p3320
asS'++o:o+o++'
p3321
(lp3322
S'E0-1'
p3323
aS'M2+1'
p3324
aS'F3+1'
p3325
aS'B4-1'
p3326
aS'M5+1'
p3327
aS'M6-1'
p3328
aS'M7+1'
p3329
aS'E9-1'
p3330
asS'oo-o+o++:'
p3331
(lp3332
S'E0+1'
p3333
aS'E0-1'
p3334
aS'UB0-1'
p3335
aS'H1-1'
p3336
aS'H1+1'
p3337
aS'M2+1'
p3338
aS'M4-1'
p3339
aS'M5+1'
p3340
aS'M6-1'
p3341
asS'oo:o+-o++'
p3342
(lp3343
S'E0+1'
p3344
aS'H1+1'
p3345
aS'F2+1'
p3346
aS'M4+1'
p3347
aS'M6+1'
p3348
aS'M7+1'
p3349
aS'E9-1'
p3350
asS'++oo-o+:o'
p3351
(lp3352
S'E0-1'
p3353
aS'M2+1'
p3354
aS'H3+1'
p3355
aS'M4+1'
p3356
aS'M6-1'
p3357
aS'B8-1'
p3358
aS'E9+1'
p3359
asS'+o-o+o:++'
p3360
(lp3361
S'E0-1'
p3362
aS'M1+1'
p3363
aS'M2+1'
p3364
aS'M3-1'
p3365
aS'M4-1'
p3366
aS'M5+1'
p3367
aS'F6+1'
p3368
aS'E9-1'
p3369
asS'+o-o+:+-+'
p3370
(lp3371
S'E0-1'
p3372
aS'M1+1'
p3373
aS'M2+1'
p3374
aS'M3-1'
p3375
aS'M4-1'
p3376
aS'H7-1'
p3377
aS'H8+1'
p3378
aS'E9-1'
p3379
asS'o-+oo:++o'
p3380
(lp3381
S'E0+1'
p3382
aS'M1+1'
p3383
aS'M3+1'
p3384
aS'H4+1'
p3385
aS'F5+1'
p3386
aS'M8-1'
p3387
aS'E9+1'
p3388
aS'E9-1'
p3389
asS'o+-o+:oo+'
p3390
(lp3391
S'E0+1'
p3392
aS'E0-1'
p3393
aS'M1-1'
p3394
aS'M3-1'
p3395
aS'M4-1'
p3396
aS'B6-1'
p3397
aS'H7+1'
p3398
aS'M8+1'
p3399
asS'+o+-o-++:'
p3400
(lp3401
S'E0-1'
p3402
aS'M1+1'
p3403
aS'M2-1'
p3404
aS'M4-1'
p3405
aS'M5+1'
p3406
asS'+-o+:o+o+'
p3407
(lp3408
S'E0-1'
p3409
aS'M2-1'
p3410
aS'M3-1'
p3411
aS'B5-1'
p3412
aS'M6+1'
p3413
aS'M7-1'
p3414
aS'M8+1'
p3415
aS'E9-1'
p3416
asS'-o+o-+oo:'
p3417
(lp3418
S'E0+1'
p3419
aS'M1-1'
p3420
aS'M2-1'
p3421
aS'M3+1'
p3422
aS'M4+1'
p3423
aS'M6+1'
p3424
aS'H7+1'
p3425
aS'F8+1'
p3426
asS'+oo-o+++:'
p3427
(lp3428
S'M1+1'
p3429
aS'H2-1'
p3430
aS'H2+1'
p3431
aS'M3+1'
p3432
aS'M5-1'
p3433
asS'o+oo:o+-+'
p3434
(lp3435
S'E0+1'
p3436
aS'E0-1'
p3437
aS'M2+1'
p3438
aS'H3+1'
p3439
aS'F4+1'
p3440
aS'M6+1'
p3441
aS'H8+1'
p3442
aS'E9-1'
p3443
asS'o++-+o:oo'
p3444
(lp3445
S'E0+1'
p3446
aS'E0-1'
p3447
aS'M1-1'
p3448
aS'H3+1'
p3449
aS'M5+1'
p3450
aS'B7-1'
p3451
aS'H8+1'
p3452
aS'E9+1'
p3453
asS':+++-+-+-'
p3454
(lp3455
S'H4-1'
p3456
aS'H5+1'
p3457
aS'H6-1'
p3458
aS'H7+1'
p3459
aS'H8-1'
p3460
aS'E9+1'
p3461
asS':+o+o+-+-'
p3462
(lp3463
S'M2-1'
p3464
aS'M3+1'
p3465
aS'M4-1'
p3466
aS'M5+1'
p3467
aS'H7+1'
p3468
aS'H8-1'
p3469
aS'E9+1'
p3470
asS'+o++o+:++'
p3471
(lp3472
S'E0-1'
p3473
aS'M1+1'
p3474
aS'M2-1'
p3475
aS'M4+1'
p3476
aS'M5-1'
p3477
aS'E9-1'
p3478
asS'+:o+-++-o'
p3479
(lp3480
S'E0-1'
p3481
aS'B2-1'
p3482
aS'M3+1'
p3483
aS'H5+1'
p3484
aS'M8+1'
p3485
aS'E9+1'
p3486
aS'E9-1'
p3487
asS'o-o+o:o++'
p3488
(lp3489
S'E0+1'
p3490
aS'M1+1'
p3491
aS'M2-1'
p3492
aS'M3-1'
p3493
aS'M4+1'
p3494
aS'F5+1'
p3495
aS'B6-1'
p3496
aS'M7+1'
p3497
aS'E9-1'
p3498
asS'oo+o+o+:+'
p3499
(lp3500
S'E0+1'
p3501
aS'E0-1'
p3502
aS'H1-1'
p3503
aS'H1+1'
p3504
aS'M2-1'
p3505
aS'M4-1'
p3506
aS'M5+1'
p3507
aS'M6-1'
p3508
aS'E9-1'
p3509
asS'+o-oo+:+-'
p3510
(lp3511
S'E0-1'
p3512
aS'M1+1'
p3513
aS'M3-1'
p3514
aS'H4-1'
p3515
aS'H4+1'
p3516
aS'M5-1'
p3517
aS'H8-1'
p3518
aS'E9+1'
p3519
asS'+o+o-+oo:'
p3520
(lp3521
S'E0-1'
p3522
aS'M1+1'
p3523
aS'M2-1'
p3524
aS'M3+1'
p3525
aS'M4+1'
p3526
aS'M6+1'
p3527
aS'H7+1'
p3528
aS'F8+1'
p3529
asS'-oo-+++:+'
p3530
(lp3531
S'E9-1'
p3532
aS'H2-1'
p3533
aS'H2+1'
p3534
aS'M3+1'
p3535
aS'M1-1'
p3536
asS'o+-o+++:+'
p3537
(lp3538
S'E0+1'
p3539
aS'E0-1'
p3540
aS'E9-1'
p3541
aS'M3-1'
p3542
aS'M4-1'
p3543
aS'M1-1'
p3544
asS'oo:o+-o+o'
p3545
(lp3546
S'E0+1'
p3547
aS'H1+1'
p3548
aS'F2+1'
p3549
aS'M4+1'
p3550
aS'M6+1'
p3551
aS'M7+1'
p3552
aS'M8-1'
p3553
aS'E9+1'
p3554
aS'E9-1'
p3555
asS':+oo+o-++'
p3556
(lp3557
S'E9-1'
p3558
aS'M2-1'
p3559
aS'H3-1'
p3560
aS'H3+1'
p3561
aS'M4+1'
p3562
aS'M6-1'
p3563
asS'oo+-oo+:o'
p3564
(lp3565
S'E0+1'
p3566
aS'E0-1'
p3567
aS'H1-1'
p3568
aS'H1+1'
p3569
aS'M2-1'
p3570
aS'M4-1'
p3571
aS'H5-1'
p3572
aS'H5+1'
p3573
aS'M6-1'
p3574
aS'B8-1'
p3575
aS'E9+1'
p3576
asS'oo:o+-oo+'
p3577
(lp3578
S'E0+1'
p3579
aS'H1+1'
p3580
aS'F2+1'
p3581
aS'M4+1'
p3582
aS'M6+1'
p3583
aS'H7+1'
p3584
aS'M8+1'
p3585
asS'+oo-+o-+:'
p3586
(lp3587
S'M1+1'
p3588
aS'H2+1'
p3589
aS'M3+1'
p3590
aS'M5+1'
p3591
aS'M6+1'
p3592
asS'+o+-+o:oo'
p3593
(lp3594
S'E0-1'
p3595
aS'M1+1'
p3596
aS'M2-1'
p3597
aS'M5+1'
p3598
aS'B7-1'
p3599
aS'H8+1'
p3600
aS'E9+1'
p3601
asS'oo-oo++o:'
p3602
(lp3603
S'E0+1'
p3604
aS'E0-1'
p3605
aS'UB0-1'
p3606
aS'H1-1'
p3607
aS'H1+1'
p3608
aS'H4-1'
p3609
aS'H4+1'
p3610
aS'M5-1'
p3611
aS'M7+1'
p3612
aS'F8+1'
p3613
asS'+:o+-+o++'
p3614
(lp3615
S'E0-1'
p3616
aS'B2-1'
p3617
aS'M3+1'
p3618
aS'M6-1'
p3619
aS'M7+1'
p3620
aS'E9-1'
p3621
asS'---+o+o+:'
p3622
(lp3623
S'E0+1'
p3624
aS'M4+1'
p3625
aS'M5-1'
p3626
aS'M6+1'
p3627
aS'M7-1'
p3628
asS'o++-+o:o+'
p3629
(lp3630
S'E0+1'
p3631
aS'E0-1'
p3632
aS'M1-1'
p3633
aS'H3+1'
p3634
aS'M5+1'
p3635
aS'F6+1'
p3636
aS'B7-1'
p3637
aS'M8+1'
p3638
aS'E9-1'
p3639
asS'++--+++:+'
p3640
(lp3641
S'E0-1'
p3642
aS'E9-1'
p3643
aS'H2+1'
p3644
aS'H4-1'
p3645
asS':++-o-o++'
p3646
(lp3647
S'E9-1'
p3648
aS'M4+1'
p3649
aS'M5-1'
p3650
aS'M6+1'
p3651
aS'M7+1'
p3652
asS'o-oo+o++:'
p3653
(lp3654
S'E0+1'
p3655
aS'E0-1'
p3656
aS'UB0-1'
p3657
aS'M2-1'
p3658
aS'H3-1'
p3659
aS'H3+1'
p3660
aS'M4-1'
p3661
aS'M6-1'
p3662
asS'-oo-o++:o'
p3663
(lp3664
S'M1-1'
p3665
aS'H2-1'
p3666
aS'H2+1'
p3667
aS'M3+1'
p3668
aS'M5-1'
p3669
aS'B8-1'
p3670
aS'E9+1'
p3671
asS'+oo-o+o:o'
p3672
(lp3673
S'M1+1'
p3674
aS'H2+1'
p3675
aS'M3+1'
p3676
aS'M5-1'
p3677
aS'M6+1'
p3678
aS'F7+1'
p3679
aS'B8-1'
p3680
aS'E9+1'
p3681
asS'o-o-++:+o'
p3682
(lp3683
S'E0+1'
p3684
aS'M1+1'
p3685
aS'M2-1'
p3686
aS'M3+1'
p3687
aS'M8-1'
p3688
aS'E9+1'
p3689
aS'E9-1'
p3690
asS'o-o+oo++:'
p3691
(lp3692
S'E0+1'
p3693
aS'E0-1'
p3694
aS'UB0-1'
p3695
aS'M1+1'
p3696
aS'M2-1'
p3697
aS'M4+1'
p3698
aS'H5-1'
p3699
aS'H5+1'
p3700
aS'M6-1'
p3701
asS'o-+o:+-oo'
p3702
(lp3703
S'E0+1'
p3704
aS'M1+1'
p3705
aS'M3+1'
p3706
aS'F4+1'
p3707
aS'M7+1'
p3708
aS'H8+1'
p3709
aS'E9+1'
p3710
asS'o+-oo++:+'
p3711
(lp3712
S'E0+1'
p3713
aS'E0-1'
p3714
aS'M1-1'
p3715
aS'M3-1'
p3716
aS'H4-1'
p3717
aS'H4+1'
p3718
aS'M5-1'
p3719
aS'E9-1'
p3720
asS'+:+-o++oo'
p3721
(lp3722
S'E0-1'
p3723
aS'M4+1'
p3724
aS'M5+1'
p3725
aS'M7-1'
p3726
aS'H8-1'
p3727
aS'H8+1'
p3728
aS'E9+1'
p3729
aS'E9-1'
p3730
asS'+-o++o+:+'
p3731
(lp3732
S'E0-1'
p3733
aS'M2-1'
p3734
aS'M3-1'
p3735
aS'M5+1'
p3736
aS'M6-1'
p3737
aS'E9-1'
p3738
asS'+o-oo+:oo'
p3739
(lp3740
S'E0-1'
p3741
aS'M1+1'
p3742
aS'M3-1'
p3743
aS'H4-1'
p3744
aS'H4+1'
p3745
aS'M5-1'
p3746
aS'B7-1'
p3747
aS'H8+1'
p3748
aS'E9+1'
p3749
asS'+---o+++:'
p3750
(lp3751
S'E0-1'
p3752
aS'H1+1'
p3753
aS'M4-1'
p3754
aS'M5-1'
p3755
asS'oo+-o+o:o'
p3756
(lp3757
S'E0+1'
p3758
aS'E0-1'
p3759
aS'H1-1'
p3760
aS'H1+1'
p3761
aS'M2-1'
p3762
aS'M4-1'
p3763
aS'M5-1'
p3764
aS'M6+1'
p3765
aS'F7+1'
p3766
aS'B8-1'
p3767
aS'E9+1'
p3768
asS'o-+-+:++o'
p3769
(lp3770
S'E0+1'
p3771
aS'M1+1'
p3772
aS'H3+1'
p3773
aS'H4-1'
p3774
aS'M8-1'
p3775
aS'E9+1'
p3776
aS'E9-1'
p3777
asS'+o+-o+oo:'
p3778
(lp3779
S'E0-1'
p3780
aS'M1+1'
p3781
aS'M2-1'
p3782
aS'M4-1'
p3783
aS'M6+1'
p3784
aS'H7+1'
p3785
aS'F8+1'
p3786
asS'+o-+o++:+'
p3787
(lp3788
S'E0-1'
p3789
aS'M1+1'
p3790
aS'M2+1'
p3791
aS'M4+1'
p3792
aS'M5-1'
p3793
aS'E9-1'
p3794
asS'oo+o:o+++'
p3795
(lp3796
S'E0+1'
p3797
aS'E0-1'
p3798
aS'H1-1'
p3799
aS'H1+1'
p3800
aS'M2-1'
p3801
aS'F4+1'
p3802
aS'B5-1'
p3803
aS'M6+1'
p3804
aS'E9-1'
p3805
asS':+-+o-o+o'
p3806
(lp3807
S'H2-1'
p3808
aS'M4-1'
p3809
aS'M5-1'
p3810
aS'M6+1'
p3811
aS'M7+1'
p3812
aS'M8-1'
p3813
aS'UF8+1'
p3814
aS'E9+1'
p3815
aS'E9-1'
p3816
asS'o--+o+o+:'
p3817
(lp3818
S'E0+1'
p3819
aS'E0-1'
p3820
aS'UB0-1'
p3821
aS'M1+1'
p3822
aS'M4+1'
p3823
aS'M5-1'
p3824
aS'M6+1'
p3825
aS'M7-1'
p3826
asS'o+--+o+:o'
p3827
(lp3828
S'E0+1'
p3829
aS'E0-1'
p3830
aS'M1-1'
p3831
aS'M5+1'
p3832
aS'M6-1'
p3833
aS'B8-1'
p3834
aS'E9+1'
p3835
asS'-o+oo:++o'
p3836
(lp3837
S'E0+1'
p3838
aS'M1-1'
p3839
aS'M3+1'
p3840
aS'H4+1'
p3841
aS'F5+1'
p3842
aS'M8-1'
p3843
aS'E9+1'
p3844
aS'E9-1'
p3845
asS'-oo-+o+:o'
p3846
(lp3847
S'M1-1'
p3848
aS'H2-1'
p3849
aS'H2+1'
p3850
aS'M3+1'
p3851
aS'M5+1'
p3852
aS'M6-1'
p3853
aS'B8-1'
p3854
aS'E9+1'
p3855
asS'o+-o++oo:'
p3856
(lp3857
S'E0+1'
p3858
aS'E0-1'
p3859
aS'UB0-1'
p3860
aS'M1-1'
p3861
aS'M3-1'
p3862
aS'M4-1'
p3863
aS'M6+1'
p3864
aS'H7+1'
p3865
aS'F8+1'
p3866
asS'+o+:+o-oo'
p3867
(lp3868
S'E0-1'
p3869
aS'M1+1'
p3870
aS'M2-1'
p3871
aS'M5-1'
p3872
aS'M7+1'
p3873
aS'H8+1'
p3874
aS'E9+1'
p3875
asS'-o+:o+-+-'
p3876
(lp3877
S'E0+1'
p3878
aS'M1-1'
p3879
aS'M2-1'
p3880
aS'B4-1'
p3881
aS'M5+1'
p3882
aS'H7+1'
p3883
aS'H8-1'
p3884
aS'E9+1'
p3885
asS'oo+o:+-o+'
p3886
(lp3887
S'E0+1'
p3888
aS'E0-1'
p3889
aS'H1-1'
p3890
aS'H1+1'
p3891
aS'M2-1'
p3892
aS'F4+1'
p3893
aS'M7+1'
p3894
aS'M8+1'
p3895
aS'E9-1'
p3896
asS'---o+o++:'
p3897
(lp3898
S'E0+1'
p3899
aS'M3-1'
p3900
aS'M4-1'
p3901
aS'M5+1'
p3902
aS'M6-1'
p3903
asS'+o--oo++:'
p3904
(lp3905
S'E0-1'
p3906
aS'M1+1'
p3907
aS'M2+1'
p3908
aS'M4-1'
p3909
aS'H5-1'
p3910
aS'H5+1'
p3911
aS'M6-1'
p3912
asS'o-+-+:+++'
p3913
(lp3914
S'E0+1'
p3915
aS'E9-1'
p3916
aS'H3+1'
p3917
aS'H4-1'
p3918
aS'M1+1'
p3919
asS'++--+o+o:'
p3920
(lp3921
S'E0-1'
p3922
aS'H2+1'
p3923
aS'M5+1'
p3924
aS'M6-1'
p3925
aS'M7+1'
p3926
aS'F8+1'
p3927
asS'+:o+-++o-'
p3928
(lp3929
S'E0-1'
p3930
aS'B2-1'
p3931
aS'M3+1'
p3932
aS'H5+1'
p3933
aS'M7-1'
p3934
aS'M8-1'
p3935
aS'E9+1'
p3936
asS'o-+-+:++-'
p3937
(lp3938
S'E0+1'
p3939
aS'M1+1'
p3940
aS'H3+1'
p3941
aS'H4-1'
p3942
aS'H8-1'
p3943
aS'E9+1'
p3944
asS'o:++-+--+'
p3945
(lp3946
S'E0+1'
p3947
aS'F1+1'
p3948
aS'H4-1'
p3949
aS'H5+1'
p3950
aS'H6-1'
p3951
aS'H8+1'
p3952
aS'E9-1'
p3953
asS'o-+-o++:+'
p3954
(lp3955
S'E0+1'
p3956
aS'E0-1'
p3957
aS'E9-1'
p3958
aS'M4-1'
p3959
aS'M5-1'
p3960
aS'M1+1'
p3961
asS':+oo+o+--'
p3962
(lp3963
S'E9+1'
p3964
aS'M2-1'
p3965
aS'H3-1'
p3966
aS'H3+1'
p3967
aS'M4+1'
p3968
aS'M6+1'
p3969
asS'+---++o+:'
p3970
(lp3971
S'E0-1'
p3972
aS'H1+1'
p3973
aS'H4-1'
p3974
aS'M6+1'
p3975
aS'M7-1'
p3976
asS'+o:+-++o-'
p3977
(lp3978
S'E0-1'
p3979
aS'M1+1'
p3980
aS'F2+1'
p3981
aS'H4-1'
p3982
aS'H5+1'
p3983
aS'M7-1'
p3984
aS'M8-1'
p3985
aS'E9+1'
p3986
asS'o:++oo--+'
p3987
(lp3988
S'E0+1'
p3989
aS'F1+1'
p3990
aS'M4-1'
p3991
aS'H5-1'
p3992
aS'H5+1'
p3993
aS'M6-1'
p3994
aS'H8+1'
p3995
aS'E9-1'
p3996
asS'oo--++:+o'
p3997
(lp3998
S'E0+1'
p3999
aS'H1+1'
p4000
aS'M2+1'
p4001
aS'H4-1'
p4002
aS'M8-1'
p4003
aS'E9+1'
p4004
aS'E9-1'
p4005
asS'+:o++-+-o'
p4006
(lp4007
S'E0-1'
p4008
aS'B2-1'
p4009
aS'M3+1'
p4010
aS'H5-1'
p4011
aS'H6+1'
p4012
aS'M8+1'
p4013
aS'E9+1'
p4014
aS'E9-1'
p4015
asS'oo++-+:o+'
p4016
(lp4017
S'E0+1'
p4018
aS'E0-1'
p4019
aS'H1-1'
p4020
aS'H1+1'
p4021
aS'M2-1'
p4022
aS'H4+1'
p4023
aS'H5-1'
p4024
aS'B7-1'
p4025
aS'M8+1'
p4026
aS'E9-1'
p4027
asS'-+oo:oo+o'
p4028
(lp4029
S'E0+1'
p4030
aS'M2+1'
p4031
aS'H3+1'
p4032
aS'H6+1'
p4033
aS'M7+1'
p4034
aS'E9+1'
p4035
aS'E9-1'
p4036
asS':o++-oo-+'
p4037
(lp4038
S'B1-1'
p4039
aS'M2+1'
p4040
aS'M5+1'
p4041
aS'H6-1'
p4042
aS'H6+1'
p4043
aS'M7-1'
p4044
aS'E9-1'
p4045
asS'+:o+o+-++'
p4046
(lp4047
S'E0-1'
p4048
aS'B2-1'
p4049
aS'M3+1'
p4050
aS'M4-1'
p4051
aS'M5+1'
p4052
aS'H7+1'
p4053
aS'E9-1'
p4054
asS'oo+o:+-oo'
p4055
(lp4056
S'E0+1'
p4057
aS'E0-1'
p4058
aS'H1-1'
p4059
aS'H1+1'
p4060
aS'M2-1'
p4061
aS'F4+1'
p4062
aS'M7+1'
p4063
aS'H8+1'
p4064
aS'E9+1'
p4065
asS'o-+-+o++:'
p4066
(lp4067
S'E0+1'
p4068
aS'E0-1'
p4069
aS'UB0-1'
p4070
aS'M1+1'
p4071
aS'H3+1'
p4072
aS'M5+1'
p4073
aS'M6-1'
p4074
asS'+o-o+:oo+'
p4075
(lp4076
S'E0-1'
p4077
aS'M1+1'
p4078
aS'M2+1'
p4079
aS'M3-1'
p4080
aS'M4-1'
p4081
aS'B6-1'
p4082
aS'H7+1'
p4083
aS'M8+1'
p4084
asS'o+:oo++o-'
p4085
(lp4086
S'E0+1'
p4087
aS'E0-1'
p4088
aS'M1-1'
p4089
aS'B3-1'
p4090
aS'H4+1'
p4091
aS'M5+1'
p4092
aS'M7-1'
p4093
aS'M8-1'
p4094
aS'E9+1'
p4095
asS'+-o-++:+o'
p4096
(lp4097
S'E0-1'
p4098
aS'E9+1'
p4099
aS'E9-1'
p4100
aS'M2-1'
p4101
aS'M3+1'
p4102
aS'M8-1'
p4103
asS'+o-o+:o+o'
p4104
(lp4105
S'E0-1'
p4106
aS'M1+1'
p4107
aS'M2+1'
p4108
aS'M3-1'
p4109
aS'M4-1'
p4110
aS'B6-1'
p4111
aS'M7+1'
p4112
aS'M8-1'
p4113
aS'E9+1'
p4114
aS'E9-1'
p4115
asS'o+o++:o++'
p4116
(lp4117
S'E0+1'
p4118
aS'E0-1'
p4119
aS'M1-1'
p4120
aS'M2+1'
p4121
aS'M3-1'
p4122
aS'B6-1'
p4123
aS'M7+1'
p4124
aS'E9-1'
p4125
asS'o++oo:+o-'
p4126
(lp4127
S'E0+1'
p4128
aS'E0-1'
p4129
aS'M1-1'
p4130
aS'M3+1'
p4131
aS'H4+1'
p4132
aS'F5+1'
p4133
aS'M7-1'
p4134
aS'M8-1'
p4135
aS'E9+1'
p4136
asS':oo+o+oo-'
p4137
(lp4138
S'B1-1'
p4139
aS'H2+1'
p4140
aS'M3+1'
p4141
aS'M6-1'
p4142
aS'H7-1'
p4143
aS'H7+1'
p4144
aS'M8-1'
p4145
asS'++o-o+-+:'
p4146
(lp4147
S'E0-1'
p4148
aS'M2+1'
p4149
aS'M3+1'
p4150
aS'M4-1'
p4151
aS'M5-1'
p4152
aS'H7-1'
p4153
asS':+o+oo--o'
p4154
(lp4155
S'M2-1'
p4156
aS'M4-1'
p4157
aS'H5-1'
p4158
aS'H5+1'
p4159
aS'M6-1'
p4160
aS'M8+1'
p4161
aS'UF8+1'
p4162
aS'E9+1'
p4163
asS'-+-oo+-+:'
p4164
(lp4165
S'E0+1'
p4166
aS'H1-1'
p4167
aS'M3-1'
p4168
aS'H4-1'
p4169
aS'H4+1'
p4170
aS'M5-1'
p4171
aS'H7-1'
p4172
asS'+oo:+o+oo'
p4173
(lp4174
S'M1+1'
p4175
aS'H2+1'
p4176
aS'F3+1'
p4177
aS'M5-1'
p4178
aS'M7-1'
p4179
aS'H8-1'
p4180
aS'H8+1'
p4181
aS'E9+1'
p4182
aS'E9-1'
p4183
asS'-oo-+++:o'
p4184
(lp4185
S'B8-1'
p4186
aS'E9+1'
p4187
aS'H2-1'
p4188
aS'H2+1'
p4189
aS'M3+1'
p4190
aS'M1-1'
p4191
asS'+o-o-+o+:'
p4192
(lp4193
S'E0-1'
p4194
aS'M1+1'
p4195
aS'M2+1'
p4196
aS'M3-1'
p4197
aS'M4+1'
p4198
aS'M6+1'
p4199
aS'M7-1'
p4200
asS'o+o--+o+:'
p4201
(lp4202
S'E0+1'
p4203
aS'E0-1'
p4204
aS'UB0-1'
p4205
aS'M1-1'
p4206
aS'M2+1'
p4207
aS'M3+1'
p4208
aS'M6+1'
p4209
aS'M7-1'
p4210
asS'oo-oo+:o+'
p4211
(lp4212
S'E0+1'
p4213
aS'H1+1'
p4214
aS'H4-1'
p4215
aS'H4+1'
p4216
aS'M5-1'
p4217
aS'B7-1'
p4218
aS'M8+1'
p4219
aS'E9-1'
p4220
asS'oo--++:o+'
p4221
(lp4222
S'E0+1'
p4223
aS'H1+1'
p4224
aS'M2+1'
p4225
aS'H4-1'
p4226
aS'B7-1'
p4227
aS'M8+1'
p4228
aS'E9-1'
p4229
asS':+++-oo+o'
p4230
(lp4231
S'UF8+1'
p4232
aS'E9+1'
p4233
aS'E9-1'
p4234
aS'M5+1'
p4235
aS'H6-1'
p4236
aS'H6+1'
p4237
aS'M7+1'
p4238
asS'+-++-+oo:'
p4239
(lp4240
S'E0-1'
p4241
aS'H1+1'
p4242
aS'H2-1'
p4243
aS'H4+1'
p4244
aS'M6+1'
p4245
aS'H7+1'
p4246
aS'F8+1'
p4247
asS'+-+-++:oo'
p4248
(lp4249
S'E0-1'
p4250
aS'H1+1'
p4251
aS'H2-1'
p4252
aS'H3+1'
p4253
aS'H4-1'
p4254
aS'B7-1'
p4255
aS'H8+1'
p4256
aS'E9+1'
p4257
asS'++-o-++:+'
p4258
(lp4259
S'E0-1'
p4260
aS'E9-1'
p4261
aS'M3-1'
p4262
aS'M4+1'
p4263
asS':+oo+--++'
p4264
(lp4265
S'E9-1'
p4266
aS'M2-1'
p4267
aS'H3-1'
p4268
aS'H3+1'
p4269
aS'M4+1'
p4270
aS'H7+1'
p4271
asS'+oo-o+:+o'
p4272
(lp4273
S'M1+1'
p4274
aS'H2+1'
p4275
aS'M3+1'
p4276
aS'M5-1'
p4277
aS'M8-1'
p4278
aS'E9+1'
p4279
aS'E9-1'
p4280
asS'oo+o:+o++'
p4281
(lp4282
S'E0+1'
p4283
aS'E0-1'
p4284
aS'H1-1'
p4285
aS'H1+1'
p4286
aS'M2-1'
p4287
aS'F4+1'
p4288
aS'M6-1'
p4289
aS'M7+1'
p4290
aS'E9-1'
p4291
asS'-+:+oo-oo'
p4292
(lp4293
S'E0+1'
p4294
aS'H1-1'
p4295
aS'M4-1'
p4296
aS'H5-1'
p4297
aS'H5+1'
p4298
aS'H8+1'
p4299
aS'E9+1'
p4300
asS'-++o+o:oo'
p4301
(lp4302
S'E0+1'
p4303
aS'H1-1'
p4304
aS'M3+1'
p4305
aS'M4-1'
p4306
aS'M5+1'
p4307
aS'B7-1'
p4308
aS'H8+1'
p4309
aS'E9+1'
p4310
asS':+o+oo-o-'
p4311
(lp4312
S'M2-1'
p4313
aS'M4-1'
p4314
aS'H5-1'
p4315
aS'H5+1'
p4316
aS'M6-1'
p4317
aS'M8-1'
p4318
aS'E9+1'
p4319
asS'o+--o+o+:'
p4320
(lp4321
S'E0+1'
p4322
aS'E0-1'
p4323
aS'UB0-1'
p4324
aS'M1-1'
p4325
aS'M4-1'
p4326
aS'M5-1'
p4327
aS'M6+1'
p4328
aS'M7-1'
p4329
asS'-o-o++o+:'
p4330
(lp4331
S'E0+1'
p4332
aS'M1-1'
p4333
aS'M2+1'
p4334
aS'M3-1'
p4335
aS'M4-1'
p4336
aS'M6+1'
p4337
aS'M7-1'
p4338
asS'o+:o+o-++'
p4339
(lp4340
S'E0+1'
p4341
aS'E0-1'
p4342
aS'M1-1'
p4343
aS'B3-1'
p4344
aS'M4+1'
p4345
aS'M5-1'
p4346
aS'M6-1'
p4347
aS'E9-1'
p4348
asS'o-+-+:+oo'
p4349
(lp4350
S'E0+1'
p4351
aS'M1+1'
p4352
aS'H3+1'
p4353
aS'H4-1'
p4354
aS'M7-1'
p4355
aS'H8-1'
p4356
aS'H8+1'
p4357
aS'E9+1'
p4358
aS'E9-1'
p4359
asS'++:oo+oo+'
p4360
(lp4361
S'E0-1'
p4362
aS'M8+1'
p4363
aS'B3-1'
p4364
aS'H4+1'
p4365
aS'H7-1'
p4366
aS'H7+1'
p4367
asS':++-+--++'
p4368
(lp4369
S'E9-1'
p4370
aS'H3-1'
p4371
aS'H4+1'
p4372
aS'H5-1'
p4373
aS'H7+1'
p4374
asS'o+--o++o:'
p4375
(lp4376
S'E0+1'
p4377
aS'E0-1'
p4378
aS'UB0-1'
p4379
aS'M1-1'
p4380
aS'M4-1'
p4381
aS'M5-1'
p4382
aS'M7+1'
p4383
aS'F8+1'
p4384
asS'-o--+o++:'
p4385
(lp4386
S'E0+1'
p4387
aS'M1-1'
p4388
aS'M2+1'
p4389
aS'M5+1'
p4390
aS'M6-1'
p4391
asS'-+--++:+o'
p4392
(lp4393
S'E0+1'
p4394
aS'H1-1'
p4395
aS'H2+1'
p4396
aS'H4-1'
p4397
aS'M8-1'
p4398
aS'E9+1'
p4399
aS'E9-1'
p4400
asS'+o-++:oo+'
p4401
(lp4402
S'E0-1'
p4403
aS'M1+1'
p4404
aS'M2+1'
p4405
aS'B6-1'
p4406
aS'H7+1'
p4407
aS'M8+1'
p4408
asS'++-oo+:o+'
p4409
(lp4410
S'E0-1'
p4411
aS'M3-1'
p4412
aS'H4-1'
p4413
aS'H4+1'
p4414
aS'M5-1'
p4415
aS'B7-1'
p4416
aS'M8+1'
p4417
aS'E9-1'
p4418
asS'---+-+++:'
p4419
(lp4420
S'E0+1'
p4421
aS'H3-1'
p4422
aS'H4+1'
p4423
aS'H5-1'
p4424
asS'oo-oo+:oo'
p4425
(lp4426
S'E0+1'
p4427
aS'H1+1'
p4428
aS'H4-1'
p4429
aS'H4+1'
p4430
aS'M5-1'
p4431
aS'B7-1'
p4432
aS'H8+1'
p4433
aS'E9+1'
p4434
asS'+oo--+o+:'
p4435
(lp4436
S'M1+1'
p4437
aS'H2+1'
p4438
aS'M3+1'
p4439
aS'M6+1'
p4440
aS'M7-1'
p4441
asS'o++-oo+:o'
p4442
(lp4443
S'E0+1'
p4444
aS'E0-1'
p4445
aS'M1-1'
p4446
aS'M4-1'
p4447
aS'H5-1'
p4448
aS'H5+1'
p4449
aS'M6-1'
p4450
aS'B8-1'
p4451
aS'E9+1'
p4452
asS'-+-oo++:+'
p4453
(lp4454
S'E0+1'
p4455
aS'H1-1'
p4456
aS'M3-1'
p4457
aS'H4-1'
p4458
aS'H4+1'
p4459
aS'M5-1'
p4460
aS'E9-1'
p4461
asS'+:+-o++o-'
p4462
(lp4463
S'E0-1'
p4464
aS'M4+1'
p4465
aS'M5+1'
p4466
aS'M7-1'
p4467
aS'M8-1'
p4468
aS'E9+1'
p4469
asS':+++-oo+-'
p4470
(lp4471
S'E9+1'
p4472
aS'M5+1'
p4473
aS'H6-1'
p4474
aS'H6+1'
p4475
aS'M7+1'
p4476
asS'++o-+o:o+'
p4477
(lp4478
S'E0-1'
p4479
aS'M2+1'
p4480
aS'M3+1'
p4481
aS'M5+1'
p4482
aS'F6+1'
p4483
aS'B7-1'
p4484
aS'M8+1'
p4485
aS'E9-1'
p4486
asS'-+o-+o+:+'
p4487
(lp4488
S'E0+1'
p4489
aS'M2+1'
p4490
aS'M3+1'
p4491
aS'M5+1'
p4492
aS'M6-1'
p4493
aS'E9-1'
p4494
asS'-+o:o+oo-'
p4495
(lp4496
S'E0+1'
p4497
aS'M2+1'
p4498
aS'F3+1'
p4499
aS'B4-1'
p4500
aS'M6-1'
p4501
aS'H7-1'
p4502
aS'H7+1'
p4503
aS'M8-1'
p4504
asS'o+-+o:+oo'
p4505
(lp4506
S'E0+1'
p4507
aS'E0-1'
p4508
aS'M1-1'
p4509
aS'M4+1'
p4510
aS'F5+1'
p4511
aS'M7-1'
p4512
aS'H8-1'
p4513
aS'H8+1'
p4514
aS'E9+1'
p4515
aS'E9-1'
p4516
asS':++o+-+-o'
p4517
(lp4518
S'M8+1'
p4519
aS'UF8+1'
p4520
aS'E9+1'
p4521
aS'E9-1'
p4522
aS'M3-1'
p4523
aS'M4+1'
p4524
aS'H6+1'
p4525
asS':++o-oo-+'
p4526
(lp4527
S'E9-1'
p4528
aS'M3-1'
p4529
aS'M5+1'
p4530
aS'H6-1'
p4531
aS'H6+1'
p4532
aS'M7-1'
p4533
asS'-oo-++:o+'
p4534
(lp4535
S'M1-1'
p4536
aS'H2-1'
p4537
aS'H2+1'
p4538
aS'M3+1'
p4539
aS'B7-1'
p4540
aS'M8+1'
p4541
aS'E9-1'
p4542
asS':o++o-o++'
p4543
(lp4544
S'B1-1'
p4545
aS'M2+1'
p4546
aS'M4-1'
p4547
aS'M5-1'
p4548
aS'M6+1'
p4549
aS'M7+1'
p4550
aS'E9-1'
p4551
asS':+o+o+--+'
p4552
(lp4553
S'M2-1'
p4554
aS'M3+1'
p4555
aS'M4-1'
p4556
aS'M5+1'
p4557
aS'H8+1'
p4558
aS'E9-1'
p4559
asS'-+o:o+-++'
p4560
(lp4561
S'E0+1'
p4562
aS'M2+1'
p4563
aS'F3+1'
p4564
aS'B4-1'
p4565
aS'M5+1'
p4566
aS'H7+1'
p4567
aS'E9-1'
p4568
asS'+o-++o+:o'
p4569
(lp4570
S'E0-1'
p4571
aS'M1+1'
p4572
aS'M2+1'
p4573
aS'M5+1'
p4574
aS'M6-1'
p4575
aS'B8-1'
p4576
aS'E9+1'
p4577
asS'-+o:o+-+-'
p4578
(lp4579
S'E0+1'
p4580
aS'M2+1'
p4581
aS'F3+1'
p4582
aS'B4-1'
p4583
aS'M5+1'
p4584
aS'H7+1'
p4585
aS'H8-1'
p4586
aS'E9+1'
p4587
asS'o:+o+-o-+'
p4588
(lp4589
S'E0+1'
p4590
aS'F1+1'
p4591
aS'M3-1'
p4592
aS'M4+1'
p4593
aS'M6+1'
p4594
aS'M7-1'
p4595
aS'E9-1'
p4596
asS':o++-o-o+'
p4597
(lp4598
S'B1-1'
p4599
aS'M2+1'
p4600
aS'M5+1'
p4601
aS'M6-1'
p4602
aS'M7+1'
p4603
aS'M8+1'
p4604
aS'E9-1'
p4605
asS'+o-+oo:++'
p4606
(lp4607
S'E0-1'
p4608
aS'M1+1'
p4609
aS'M2+1'
p4610
aS'M4+1'
p4611
aS'H5+1'
p4612
aS'F6+1'
p4613
aS'E9-1'
p4614
asS'o+-+o:+-+'
p4615
(lp4616
S'E0+1'
p4617
aS'E0-1'
p4618
aS'M1-1'
p4619
aS'M4+1'
p4620
aS'F5+1'
p4621
aS'H7-1'
p4622
aS'H8+1'
p4623
aS'E9-1'
p4624
asS'+o+-o+:o+'
p4625
(lp4626
S'E0-1'
p4627
aS'M1+1'
p4628
aS'M2-1'
p4629
aS'M4-1'
p4630
aS'M5-1'
p4631
aS'B7-1'
p4632
aS'M8+1'
p4633
aS'E9-1'
p4634
asS'-+:oo++o-'
p4635
(lp4636
S'E0+1'
p4637
aS'H1-1'
p4638
aS'B3-1'
p4639
aS'H4+1'
p4640
aS'M5+1'
p4641
aS'M7-1'
p4642
aS'M8-1'
p4643
aS'E9+1'
p4644
asS'o--o++:+o'
p4645
(lp4646
S'E0+1'
p4647
aS'M1+1'
p4648
aS'M3-1'
p4649
aS'M4-1'
p4650
aS'M8-1'
p4651
aS'E9+1'
p4652
aS'E9-1'
p4653
asS':+++o-o+o'
p4654
(lp4655
S'M4-1'
p4656
aS'M5-1'
p4657
aS'M6+1'
p4658
aS'M7+1'
p4659
aS'M8-1'
p4660
aS'UF8+1'
p4661
aS'E9+1'
p4662
aS'E9-1'
p4663
asS'oo+oo:o+-'
p4664
(lp4665
S'E0+1'
p4666
aS'E0-1'
p4667
aS'H1-1'
p4668
aS'H1+1'
p4669
aS'H4+1'
p4670
aS'F5+1'
p4671
aS'M7+1'
p4672
aS'E9+1'
p4673
asS'+o-o+:o++'
p4674
(lp4675
S'E0-1'
p4676
aS'M1+1'
p4677
aS'M2+1'
p4678
aS'M3-1'
p4679
aS'M4-1'
p4680
aS'B6-1'
p4681
aS'M7+1'
p4682
aS'E9-1'
p4683
asS'+:+o-o+++'
p4684
(lp4685
S'E0-1'
p4686
aS'M3-1'
p4687
aS'M4-1'
p4688
aS'M5+1'
p4689
aS'M6+1'
p4690
aS'E9-1'
p4691
asS'o-+o:o++o'
p4692
(lp4693
S'E0+1'
p4694
aS'M1+1'
p4695
aS'M3+1'
p4696
aS'F4+1'
p4697
aS'B5-1'
p4698
aS'M6+1'
p4699
aS'M8-1'
p4700
aS'E9+1'
p4701
aS'E9-1'
p4702
asS':+o++---o'
p4703
(lp4704
S'M8+1'
p4705
aS'UF8+1'
p4706
aS'E9+1'
p4707
aS'M2-1'
p4708
aS'M3+1'
p4709
aS'H5-1'
p4710
asS'oo-++:+-+'
p4711
(lp4712
S'E0+1'
p4713
aS'E0-1'
p4714
aS'H1-1'
p4715
aS'H1+1'
p4716
aS'M2+1'
p4717
aS'H7-1'
p4718
aS'H8+1'
p4719
aS'E9-1'
p4720
asS':oo++-+o+'
p4721
(lp4722
S'B1-1'
p4723
aS'H2+1'
p4724
aS'M3+1'
p4725
aS'H5-1'
p4726
aS'M7-1'
p4727
aS'M8+1'
p4728
aS'E9-1'
p4729
asS'++o-+o:+o'
p4730
(lp4731
S'E0-1'
p4732
aS'M2+1'
p4733
aS'M3+1'
p4734
aS'M5+1'
p4735
aS'F6+1'
p4736
aS'M8-1'
p4737
aS'E9+1'
p4738
aS'E9-1'
p4739
asS'--+-o++:o'
p4740
(lp4741
S'E0+1'
p4742
aS'H2-1'
p4743
aS'M4-1'
p4744
aS'M5-1'
p4745
aS'B8-1'
p4746
aS'E9+1'
p4747
asS'-o+oo:o+-'
p4748
(lp4749
S'E0+1'
p4750
aS'M1-1'
p4751
aS'M3+1'
p4752
aS'H4+1'
p4753
aS'F5+1'
p4754
aS'M7+1'
p4755
aS'E9+1'
p4756
asS'-o+:o+-oo'
p4757
(lp4758
S'E0+1'
p4759
aS'M1-1'
p4760
aS'M2-1'
p4761
aS'B4-1'
p4762
aS'M5+1'
p4763
aS'M7+1'
p4764
aS'H8+1'
p4765
aS'E9+1'
p4766
asS'+-+-o-++:'
p4767
(lp4768
S'E0-1'
p4769
aS'H1+1'
p4770
aS'H2-1'
p4771
aS'M4-1'
p4772
aS'M5+1'
p4773
asS':oo++-o++'
p4774
(lp4775
S'B1-1'
p4776
aS'H2+1'
p4777
aS'M3+1'
p4778
aS'M6+1'
p4779
aS'M7+1'
p4780
aS'E9-1'
p4781
asS'+o-++o+:+'
p4782
(lp4783
S'E0-1'
p4784
aS'M1+1'
p4785
aS'M2+1'
p4786
aS'M5+1'
p4787
aS'M6-1'
p4788
aS'E9-1'
p4789
asS'-+:+-+-oo'
p4790
(lp4791
S'E0+1'
p4792
aS'H1-1'
p4793
aS'H4-1'
p4794
aS'H5+1'
p4795
aS'M7+1'
p4796
aS'H8+1'
p4797
aS'E9+1'
p4798
asS':++-++-o-'
p4799
(lp4800
S'M8-1'
p4801
aS'E9+1'
p4802
aS'H3-1'
p4803
aS'H4+1'
p4804
aS'M7+1'
p4805
asS'o+o-o+o:+'
p4806
(lp4807
S'E0+1'
p4808
aS'E0-1'
p4809
aS'M1-1'
p4810
aS'M2+1'
p4811
aS'M3+1'
p4812
aS'M4-1'
p4813
aS'M5-1'
p4814
aS'M6+1'
p4815
aS'F7+1'
p4816
aS'E9-1'
p4817
asS'+o+-o+:oo'
p4818
(lp4819
S'E0-1'
p4820
aS'M1+1'
p4821
aS'M2-1'
p4822
aS'M4-1'
p4823
aS'M5-1'
p4824
aS'B7-1'
p4825
aS'H8+1'
p4826
aS'E9+1'
p4827
asS'-++o+oo:o'
p4828
(lp4829
S'E0+1'
p4830
aS'H1-1'
p4831
aS'M3+1'
p4832
aS'M5+1'
p4833
aS'H6+1'
p4834
aS'F7+1'
p4835
aS'E9+1'
p4836
asS'+:+-o+o+o'
p4837
(lp4838
S'E0-1'
p4839
aS'M4+1'
p4840
aS'M5+1'
p4841
aS'M6-1'
p4842
aS'M7+1'
p4843
aS'M8-1'
p4844
aS'E9+1'
p4845
aS'E9-1'
p4846
asS':+o+o-oo-'
p4847
(lp4848
S'M2-1'
p4849
aS'M3+1'
p4850
aS'M4-1'
p4851
aS'M6+1'
p4852
aS'H7-1'
p4853
aS'H7+1'
p4854
aS'M8-1'
p4855
asS'o--++:+oo'
p4856
(lp4857
S'E0+1'
p4858
aS'M1+1'
p4859
aS'H3-1'
p4860
aS'M7-1'
p4861
aS'H8-1'
p4862
aS'H8+1'
p4863
aS'E9+1'
p4864
aS'E9-1'
p4865
asS'o+o:o+-++'
p4866
(lp4867
S'E0+1'
p4868
aS'E0-1'
p4869
aS'M1-1'
p4870
aS'M2+1'
p4871
aS'F3+1'
p4872
aS'B4-1'
p4873
aS'M5+1'
p4874
aS'H7+1'
p4875
aS'E9-1'
p4876
asS'+oo--++o:'
p4877
(lp4878
S'M1+1'
p4879
aS'H2+1'
p4880
aS'M3+1'
p4881
aS'H5-1'
p4882
aS'M7+1'
p4883
aS'F8+1'
p4884
asS'+o--o+o+:'
p4885
(lp4886
S'E0-1'
p4887
aS'M1+1'
p4888
aS'M2+1'
p4889
aS'M4-1'
p4890
aS'M5-1'
p4891
aS'M6+1'
p4892
aS'M7-1'
p4893
asS'+:+o-o++o'
p4894
(lp4895
S'E0-1'
p4896
aS'M3-1'
p4897
aS'M4-1'
p4898
aS'M5+1'
p4899
aS'M6+1'
p4900
aS'M8-1'
p4901
aS'E9+1'
p4902
aS'E9-1'
p4903
asS'o+--++-+:'
p4904
(lp4905
S'E0+1'
p4906
aS'E0-1'
p4907
aS'UB0-1'
p4908
aS'M1-1'
p4909
aS'H4-1'
p4910
aS'H6+1'
p4911
aS'H7-1'
p4912
asS'oo++o+:++'
p4913
(lp4914
S'E0+1'
p4915
aS'E0-1'
p4916
aS'H1-1'
p4917
aS'H1+1'
p4918
aS'M2-1'
p4919
aS'M4+1'
p4920
aS'M5-1'
p4921
aS'E9-1'
p4922
asS'o-+o:o+++'
p4923
(lp4924
S'E0+1'
p4925
aS'M1+1'
p4926
aS'M3+1'
p4927
aS'F4+1'
p4928
aS'B5-1'
p4929
aS'M6+1'
p4930
aS'E9-1'
p4931
asS'o++o-+o:o'
p4932
(lp4933
S'E0+1'
p4934
aS'E0-1'
p4935
aS'M1-1'
p4936
aS'M3+1'
p4937
aS'M4+1'
p4938
aS'M6+1'
p4939
aS'F7+1'
p4940
aS'B8-1'
p4941
aS'E9+1'
p4942
asS'+-o-o++o:'
p4943
(lp4944
S'E0-1'
p4945
aS'M2-1'
p4946
aS'M3+1'
p4947
aS'M4-1'
p4948
aS'M5-1'
p4949
aS'M7+1'
p4950
aS'F8+1'
p4951
asS'+--++:o+o'
p4952
(lp4953
S'E0-1'
p4954
aS'H1+1'
p4955
aS'H3-1'
p4956
aS'B6-1'
p4957
aS'M7+1'
p4958
aS'M8-1'
p4959
aS'E9+1'
p4960
aS'E9-1'
p4961
asS'++:oo+-++'
p4962
(lp4963
S'E0-1'
p4964
aS'B3-1'
p4965
aS'H4+1'
p4966
aS'M5+1'
p4967
aS'H7+1'
p4968
aS'E9-1'
p4969
asS'+-+o:o+++'
p4970
(lp4971
S'E0-1'
p4972
aS'H1+1'
p4973
aS'M3+1'
p4974
aS'F4+1'
p4975
aS'B5-1'
p4976
aS'M6+1'
p4977
aS'E9-1'
p4978
asS'+o:oo+-++'
p4979
(lp4980
S'E0-1'
p4981
aS'M1+1'
p4982
aS'B3-1'
p4983
aS'H4+1'
p4984
aS'M5+1'
p4985
aS'H7+1'
p4986
aS'E9-1'
p4987
asS'+-+--+o+:'
p4988
(lp4989
S'E0-1'
p4990
aS'H1+1'
p4991
aS'H2-1'
p4992
aS'H3+1'
p4993
aS'M6+1'
p4994
aS'M7-1'
p4995
asS'++o-+o-+:'
p4996
(lp4997
S'E0-1'
p4998
aS'M2+1'
p4999
aS'M3+1'
p5000
aS'M5+1'
p5001
aS'M6+1'
p5002
asS'o---o+++:'
p5003
(lp5004
S'E0+1'
p5005
aS'UB0-1'
p5006
aS'M1+1'
p5007
aS'M4-1'
p5008
aS'M5-1'
p5009
asS'o+oo--++:'
p5010
(lp5011
S'E0+1'
p5012
aS'E0-1'
p5013
aS'UB0-1'
p5014
aS'M2+1'
p5015
aS'H3+1'
p5016
aS'M4+1'
p5017
aS'H6-1'
p5018
asS'o+-o+o+:+'
p5019
(lp5020
S'E0+1'
p5021
aS'E0-1'
p5022
aS'M1-1'
p5023
aS'M3-1'
p5024
aS'M4-1'
p5025
aS'M5+1'
p5026
aS'M6-1'
p5027
aS'E9-1'
p5028
asS'o+--+++:+'
p5029
(lp5030
S'E0+1'
p5031
aS'E0-1'
p5032
aS'E9-1'
p5033
aS'H4-1'
p5034
aS'M1-1'
p5035
asS'o:+o+o--+'
p5036
(lp5037
S'E0+1'
p5038
aS'F1+1'
p5039
aS'M3-1'
p5040
aS'M4+1'
p5041
aS'M5-1'
p5042
aS'M6-1'
p5043
aS'H8+1'
p5044
aS'E9-1'
p5045
asS'+-+--o++:'
p5046
(lp5047
S'E0-1'
p5048
aS'H1+1'
p5049
aS'H2-1'
p5050
aS'H3+1'
p5051
aS'M5-1'
p5052
aS'M6-1'
p5053
asS'+o+++:o++'
p5054
(lp5055
S'E0-1'
p5056
aS'M1+1'
p5057
aS'M2-1'
p5058
aS'B6-1'
p5059
aS'M7+1'
p5060
aS'E9-1'
p5061
asS'oo:oo+o-o'
p5062
(lp5063
S'E0+1'
p5064
aS'H1+1'
p5065
aS'H4+1'
p5066
aS'M5+1'
p5067
aS'M7-1'
p5068
aS'M8+1'
p5069
aS'E9+1'
p5070
asS'+-+++o:+o'
p5071
(lp5072
S'E0-1'
p5073
aS'H1+1'
p5074
aS'H2-1'
p5075
aS'M5+1'
p5076
aS'F6+1'
p5077
aS'M8-1'
p5078
aS'E9+1'
p5079
aS'E9-1'
p5080
asS'-+--++:o+'
p5081
(lp5082
S'E0+1'
p5083
aS'H1-1'
p5084
aS'H2+1'
p5085
aS'H4-1'
p5086
aS'B7-1'
p5087
aS'M8+1'
p5088
aS'E9-1'
p5089
asS'-oo-o++o:'
p5090
(lp5091
S'M1-1'
p5092
aS'H2-1'
p5093
aS'H2+1'
p5094
aS'M3+1'
p5095
aS'M5-1'
p5096
aS'M7+1'
p5097
aS'F8+1'
p5098
asS'+--o-+++:'
p5099
(lp5100
S'E0-1'
p5101
aS'H1+1'
p5102
aS'M3-1'
p5103
aS'M4+1'
p5104
asS'+oo+-+:o+'
p5105
(lp5106
S'M1+1'
p5107
aS'H2-1'
p5108
aS'H2+1'
p5109
aS'M3-1'
p5110
aS'H5-1'
p5111
aS'B7-1'
p5112
aS'M8+1'
p5113
aS'E9-1'
p5114
asS'o-+oo:+o+'
p5115
(lp5116
S'E0+1'
p5117
aS'M1+1'
p5118
aS'M3+1'
p5119
aS'H4+1'
p5120
aS'F5+1'
p5121
aS'M7-1'
p5122
aS'M8+1'
p5123
aS'E9-1'
p5124
asS'o--++:+-o'
p5125
(lp5126
S'E0+1'
p5127
aS'E9+1'
p5128
aS'H3-1'
p5129
aS'M8+1'
p5130
aS'M1+1'
p5131
asS':oo+-++-o'
p5132
(lp5133
S'B1-1'
p5134
aS'H2+1'
p5135
aS'M3+1'
p5136
aS'H5+1'
p5137
aS'M8+1'
p5138
aS'UF8+1'
p5139
aS'E9+1'
p5140
aS'E9-1'
p5141
asS'oo+o-o+:o'
p5142
(lp5143
S'E0+1'
p5144
aS'E0-1'
p5145
aS'H1-1'
p5146
aS'H1+1'
p5147
aS'M2-1'
p5148
aS'M4+1'
p5149
aS'M5-1'
p5150
aS'M6-1'
p5151
aS'B8-1'
p5152
aS'E9+1'
p5153
asS'o+oo:+-o+'
p5154
(lp5155
S'E0+1'
p5156
aS'E0-1'
p5157
aS'M2+1'
p5158
aS'H3+1'
p5159
aS'F4+1'
p5160
aS'M7+1'
p5161
aS'M8+1'
p5162
aS'E9-1'
p5163
asS':+o+-oo-+'
p5164
(lp5165
S'M2-1'
p5166
aS'M3+1'
p5167
aS'M5+1'
p5168
aS'H6-1'
p5169
aS'H6+1'
p5170
aS'M7-1'
p5171
aS'E9-1'
p5172
asS'o--++-++:'
p5173
(lp5174
S'E0+1'
p5175
aS'E0-1'
p5176
aS'UB0-1'
p5177
aS'M1+1'
p5178
aS'H3-1'
p5179
aS'H5+1'
p5180
aS'H6-1'
p5181
asS'+o:+oo-oo'
p5182
(lp5183
S'E0-1'
p5184
aS'M1+1'
p5185
aS'F2+1'
p5186
aS'M4-1'
p5187
aS'H5-1'
p5188
aS'H5+1'
p5189
aS'H8+1'
p5190
aS'E9+1'
p5191
asS'o:++oo--o'
p5192
(lp5193
S'E0+1'
p5194
aS'F1+1'
p5195
aS'M4-1'
p5196
aS'H5-1'
p5197
aS'H5+1'
p5198
aS'M6-1'
p5199
aS'M8+1'
p5200
aS'E9+1'
p5201
asS'o-o-+++:o'
p5202
(lp5203
S'E0+1'
p5204
aS'E0-1'
p5205
aS'M1+1'
p5206
aS'M2-1'
p5207
aS'M3+1'
p5208
aS'B8-1'
p5209
aS'E9+1'
p5210
asS'-+-oo-++:'
p5211
(lp5212
S'E0+1'
p5213
aS'H1-1'
p5214
aS'M3-1'
p5215
aS'H4-1'
p5216
aS'H4+1'
p5217
aS'M5+1'
p5218
asS':o++oo-+o'
p5219
(lp5220
S'B1-1'
p5221
aS'M2+1'
p5222
aS'M4-1'
p5223
aS'H5-1'
p5224
aS'H5+1'
p5225
aS'M6-1'
p5226
aS'M8-1'
p5227
aS'UF8+1'
p5228
aS'E9+1'
p5229
aS'E9-1'
p5230
asS'o+-o-++:+'
p5231
(lp5232
S'E0+1'
p5233
aS'E0-1'
p5234
aS'E9-1'
p5235
aS'M3-1'
p5236
aS'M4+1'
p5237
aS'M1-1'
p5238
asS'-+o++:oo+'
p5239
(lp5240
S'E0+1'
p5241
aS'M2+1'
p5242
aS'M3-1'
p5243
aS'B6-1'
p5244
aS'H7+1'
p5245
aS'M8+1'
p5246
asS':++++--+-'
p5247
(lp5248
S'H8-1'
p5249
aS'E9+1'
p5250
aS'H5-1'
p5251
aS'H7+1'
p5252
asS'-o--+++o:'
p5253
(lp5254
S'E0+1'
p5255
aS'M1-1'
p5256
aS'M2+1'
p5257
aS'H4-1'
p5258
aS'M7+1'
p5259
aS'F8+1'
p5260
asS'o+-o-++:o'
p5261
(lp5262
S'E0+1'
p5263
aS'E0-1'
p5264
aS'M1-1'
p5265
aS'M3-1'
p5266
aS'M4+1'
p5267
aS'B8-1'
p5268
aS'E9+1'
p5269
asS'o+oo+oo:o'
p5270
(lp5271
S'E0+1'
p5272
aS'E0-1'
p5273
aS'M2+1'
p5274
aS'H3-1'
p5275
aS'H3+1'
p5276
aS'H6+1'
p5277
aS'F7+1'
p5278
aS'E9+1'
p5279
asS':o++-o-+o'
p5280
(lp5281
S'B1-1'
p5282
aS'M2+1'
p5283
aS'M5+1'
p5284
aS'M6-1'
p5285
aS'M8-1'
p5286
aS'UF8+1'
p5287
aS'E9+1'
p5288
aS'E9-1'
p5289
asS'+o+o-oo+:'
p5290
(lp5291
S'E0-1'
p5292
aS'M1+1'
p5293
aS'M2-1'
p5294
aS'M3+1'
p5295
aS'M5-1'
p5296
aS'H6-1'
p5297
aS'H6+1'
p5298
aS'M7-1'
p5299
asS'++o-o-++:'
p5300
(lp5301
S'E0-1'
p5302
aS'M2+1'
p5303
aS'M3+1'
p5304
aS'M4-1'
p5305
aS'M5+1'
p5306
asS'+-o-o++:o'
p5307
(lp5308
S'E0-1'
p5309
aS'M2-1'
p5310
aS'M3+1'
p5311
aS'M4-1'
p5312
aS'M5-1'
p5313
aS'B8-1'
p5314
aS'E9+1'
p5315
asS'-+--++:oo'
p5316
(lp5317
S'E0+1'
p5318
aS'H1-1'
p5319
aS'H2+1'
p5320
aS'H4-1'
p5321
aS'B7-1'
p5322
aS'H8+1'
p5323
aS'E9+1'
p5324
asS'-o+-+:oo+'
p5325
(lp5326
S'E0+1'
p5327
aS'M1-1'
p5328
aS'M2-1'
p5329
aS'H4-1'
p5330
aS'B6-1'
p5331
aS'H7+1'
p5332
aS'M8+1'
p5333
asS':+oo++-o-'
p5334
(lp5335
S'M2-1'
p5336
aS'H3-1'
p5337
aS'H3+1'
p5338
aS'M4+1'
p5339
aS'M7+1'
p5340
aS'M8-1'
p5341
aS'E9+1'
p5342
asS'o-++-+oo:'
p5343
(lp5344
S'E0+1'
p5345
aS'E0-1'
p5346
aS'UB0-1'
p5347
aS'M1+1'
p5348
aS'H4+1'
p5349
aS'M6+1'
p5350
aS'H7+1'
p5351
aS'F8+1'
p5352
asS'-o-o+o+:o'
p5353
(lp5354
S'E0+1'
p5355
aS'M1-1'
p5356
aS'M2+1'
p5357
aS'M3-1'
p5358
aS'M4-1'
p5359
aS'M5+1'
p5360
aS'M6-1'
p5361
aS'B8-1'
p5362
aS'E9+1'
p5363
asS'+-+oo+:o+'
p5364
(lp5365
S'E0-1'
p5366
aS'H1+1'
p5367
aS'M3+1'
p5368
aS'H4-1'
p5369
aS'H4+1'
p5370
aS'M5-1'
p5371
aS'B7-1'
p5372
aS'M8+1'
p5373
aS'E9-1'
p5374
asS'o-+oo:+oo'
p5375
(lp5376
S'E0+1'
p5377
aS'M1+1'
p5378
aS'M3+1'
p5379
aS'H4+1'
p5380
aS'F5+1'
p5381
aS'M7-1'
p5382
aS'H8-1'
p5383
aS'H8+1'
p5384
aS'E9+1'
p5385
aS'E9-1'
p5386
asS'+-+oo:+o-'
p5387
(lp5388
S'E0-1'
p5389
aS'H1+1'
p5390
aS'M3+1'
p5391
aS'H4+1'
p5392
aS'F5+1'
p5393
aS'M7-1'
p5394
aS'M8-1'
p5395
aS'E9+1'
p5396
asS'o+o-o+++:'
p5397
(lp5398
S'E0+1'
p5399
aS'E0-1'
p5400
aS'UB0-1'
p5401
aS'M1-1'
p5402
aS'M2+1'
p5403
aS'M3+1'
p5404
aS'M4-1'
p5405
aS'M5-1'
p5406
asS':+o++o-+-'
p5407
(lp5408
S'M2-1'
p5409
aS'M3+1'
p5410
aS'M5-1'
p5411
aS'M6-1'
p5412
aS'H8-1'
p5413
aS'E9+1'
p5414
asS'--o-++o+:'
p5415
(lp5416
S'E0+1'
p5417
aS'M2-1'
p5418
aS'M3+1'
p5419
aS'M6+1'
p5420
aS'M7-1'
p5421
asS'-+-+-+-+:'
p5422
(lp5423
S'E0+1'
p5424
aS'H1-1'
p5425
aS'H2+1'
p5426
aS'H3-1'
p5427
aS'H4+1'
p5428
aS'H5-1'
p5429
aS'H6+1'
p5430
aS'H7-1'
p5431
asS'+--++:oo+'
p5432
(lp5433
S'E0-1'
p5434
aS'H1+1'
p5435
aS'H3-1'
p5436
aS'B6-1'
p5437
aS'H7+1'
p5438
aS'M8+1'
p5439
asS':o+o+--+o'
p5440
(lp5441
S'B1-1'
p5442
aS'M2+1'
p5443
aS'M3-1'
p5444
aS'M4+1'
p5445
aS'M8-1'
p5446
aS'UF8+1'
p5447
aS'E9+1'
p5448
aS'E9-1'
p5449
asS'+:+o-++o-'
p5450
(lp5451
S'E0-1'
p5452
aS'M3-1'
p5453
aS'M4-1'
p5454
aS'M7-1'
p5455
aS'M8-1'
p5456
aS'E9+1'
p5457
asS'o+:oo+-++'
p5458
(lp5459
S'E0+1'
p5460
aS'E0-1'
p5461
aS'M1-1'
p5462
aS'B3-1'
p5463
aS'H4+1'
p5464
aS'M5+1'
p5465
aS'H7+1'
p5466
aS'E9-1'
p5467
asS'o+o-+o-+:'
p5468
(lp5469
S'E0+1'
p5470
aS'E0-1'
p5471
aS'UB0-1'
p5472
aS'M1-1'
p5473
aS'M2+1'
p5474
aS'M3+1'
p5475
aS'M5+1'
p5476
aS'M6+1'
p5477
asS'+-oo++o+:'
p5478
(lp5479
S'E0-1'
p5480
aS'M2-1'
p5481
aS'H3-1'
p5482
aS'H3+1'
p5483
aS'M4-1'
p5484
aS'M6+1'
p5485
aS'M7-1'
p5486
asS'+oo:o+oo-'
p5487
(lp5488
S'M1+1'
p5489
aS'H2+1'
p5490
aS'F3+1'
p5491
aS'M6-1'
p5492
aS'H7-1'
p5493
aS'H7+1'
p5494
aS'M8-1'
p5495
asS':o+o+oo-o'
p5496
(lp5497
S'B1-1'
p5498
aS'M2+1'
p5499
aS'M3-1'
p5500
aS'M5-1'
p5501
aS'H6-1'
p5502
aS'H6+1'
p5503
aS'M7-1'
p5504
aS'UF8+1'
p5505
aS'E9+1'
p5506
aS'E9-1'
p5507
asS':o+o+o-++'
p5508
(lp5509
S'B1-1'
p5510
aS'M2+1'
p5511
aS'M3-1'
p5512
aS'M4+1'
p5513
aS'M5-1'
p5514
aS'M6-1'
p5515
aS'E9-1'
p5516
asS'-+o-o+oo:'
p5517
(lp5518
S'E0+1'
p5519
aS'M2+1'
p5520
aS'M3+1'
p5521
aS'M4-1'
p5522
aS'M6+1'
p5523
aS'H7+1'
p5524
aS'F8+1'
p5525
asS':++--+-oo'
p5526
(lp5527
S'H8+1'
p5528
aS'UF8+1'
p5529
aS'E9+1'
p5530
aS'H3-1'
p5531
aS'H5+1'
p5532
aS'M7+1'
p5533
asS'+o--o++o:'
p5534
(lp5535
S'E0-1'
p5536
aS'M1+1'
p5537
aS'M2+1'
p5538
aS'M4-1'
p5539
aS'M5-1'
p5540
aS'M7+1'
p5541
aS'F8+1'
p5542
asS':+-++-+o+'
p5543
(lp5544
S'H2-1'
p5545
aS'H3+1'
p5546
aS'H5-1'
p5547
aS'M7-1'
p5548
aS'M8+1'
p5549
aS'E9-1'
p5550
asS'+oo-o+:o+'
p5551
(lp5552
S'M1+1'
p5553
aS'H2+1'
p5554
aS'M3+1'
p5555
aS'M5-1'
p5556
aS'B7-1'
p5557
aS'M8+1'
p5558
aS'E9-1'
p5559
asS'oo+-o+:o+'
p5560
(lp5561
S'E0+1'
p5562
aS'E0-1'
p5563
aS'H1-1'
p5564
aS'H1+1'
p5565
aS'M2-1'
p5566
aS'M4-1'
p5567
aS'M5-1'
p5568
aS'B7-1'
p5569
aS'M8+1'
p5570
aS'E9-1'
p5571
asS'+:+o+-+-+'
p5572
(lp5573
S'E0-1'
p5574
aS'M3-1'
p5575
aS'M4+1'
p5576
aS'H6+1'
p5577
aS'H7-1'
p5578
aS'H8+1'
p5579
aS'E9-1'
p5580
asS'++-+o++:+'
p5581
(lp5582
S'E0-1'
p5583
aS'E9-1'
p5584
aS'H2+1'
p5585
aS'M4+1'
p5586
aS'M5-1'
p5587
asS'o-+-+:+o+'
p5588
(lp5589
S'E0+1'
p5590
aS'M1+1'
p5591
aS'H3+1'
p5592
aS'H4-1'
p5593
aS'M7-1'
p5594
aS'M8+1'
p5595
aS'E9-1'
p5596
asS':+oo+--+-'
p5597
(lp5598
S'M2-1'
p5599
aS'H3-1'
p5600
aS'H3+1'
p5601
aS'M4+1'
p5602
aS'H7+1'
p5603
aS'H8-1'
p5604
aS'E9+1'
p5605
asS'oo-oo+o:+'
p5606
(lp5607
S'E0+1'
p5608
aS'H1+1'
p5609
aS'H4-1'
p5610
aS'H4+1'
p5611
aS'M5-1'
p5612
aS'F7+1'
p5613
aS'E9-1'
p5614
asS'-o+:+o-+o'
p5615
(lp5616
S'E0+1'
p5617
aS'M1-1'
p5618
aS'M2-1'
p5619
aS'M5-1'
p5620
aS'M6-1'
p5621
aS'M8-1'
p5622
aS'E9+1'
p5623
aS'E9-1'
p5624
asS'oo+--++:o'
p5625
(lp5626
S'E0+1'
p5627
aS'E0-1'
p5628
aS'H1-1'
p5629
aS'H1+1'
p5630
aS'M2-1'
p5631
aS'H5-1'
p5632
aS'B8-1'
p5633
aS'E9+1'
p5634
asS'---+oo++:'
p5635
(lp5636
S'E0+1'
p5637
aS'M4+1'
p5638
aS'H5-1'
p5639
aS'H5+1'
p5640
aS'M6-1'
p5641
asS':o+o+--++'
p5642
(lp5643
S'B1-1'
p5644
aS'M2+1'
p5645
aS'M3-1'
p5646
aS'M4+1'
p5647
aS'H7+1'
p5648
aS'E9-1'
p5649
asS'oo+-+:+o-'
p5650
(lp5651
S'E0+1'
p5652
aS'E0-1'
p5653
aS'H1-1'
p5654
aS'H1+1'
p5655
aS'M2-1'
p5656
aS'H4-1'
p5657
aS'M7-1'
p5658
aS'M8-1'
p5659
aS'E9+1'
p5660
asS'o-o-o+++:'
p5661
(lp5662
S'E0+1'
p5663
aS'E0-1'
p5664
aS'UB0-1'
p5665
aS'M1+1'
p5666
aS'M2-1'
p5667
aS'M3+1'
p5668
aS'M4-1'
p5669
aS'M5-1'
p5670
asS'o---+++:+'
p5671
(lp5672
S'E0+1'
p5673
aS'E9-1'
p5674
aS'H4-1'
p5675
aS'M1+1'
p5676
asS'o---+o++:'
p5677
(lp5678
S'E0+1'
p5679
aS'UB0-1'
p5680
aS'M1+1'
p5681
aS'M5+1'
p5682
aS'M6-1'
p5683
asS'++-o+:oo+'
p5684
(lp5685
S'E0-1'
p5686
aS'M3-1'
p5687
aS'M4-1'
p5688
aS'B6-1'
p5689
aS'H7+1'
p5690
aS'M8+1'
p5691
asS'+-+-++o:o'
p5692
(lp5693
S'E0-1'
p5694
aS'H1+1'
p5695
aS'H2-1'
p5696
aS'H3+1'
p5697
aS'H4-1'
p5698
aS'M6+1'
p5699
aS'F7+1'
p5700
aS'B8-1'
p5701
aS'E9+1'
p5702
asS':o+o+o-+o'
p5703
(lp5704
S'B1-1'
p5705
aS'M2+1'
p5706
aS'M3-1'
p5707
aS'M4+1'
p5708
aS'M5-1'
p5709
aS'M6-1'
p5710
aS'M8-1'
p5711
aS'UF8+1'
p5712
aS'E9+1'
p5713
aS'E9-1'
p5714
asS'+---+++:+'
p5715
(lp5716
S'E0-1'
p5717
aS'E9-1'
p5718
aS'H4-1'
p5719
aS'H1+1'
p5720
asS'-o+-o++:+'
p5721
(lp5722
S'E0+1'
p5723
aS'M1-1'
p5724
aS'M2-1'
p5725
aS'M4-1'
p5726
aS'M5-1'
p5727
aS'E9-1'
p5728
asS'-oo+:oo++'
p5729
(lp5730
S'M1-1'
p5731
aS'H2-1'
p5732
aS'H2+1'
p5733
aS'M3-1'
p5734
aS'B5-1'
p5735
aS'H6+1'
p5736
aS'M7+1'
p5737
aS'E9-1'
p5738
asS'oo-+o:o++'
p5739
(lp5740
S'E0+1'
p5741
aS'H1+1'
p5742
aS'M2+1'
p5743
aS'M4+1'
p5744
aS'F5+1'
p5745
aS'B6-1'
p5746
aS'M7+1'
p5747
aS'E9-1'
p5748
asS'-+:oo+-oo'
p5749
(lp5750
S'E0+1'
p5751
aS'H1-1'
p5752
aS'B3-1'
p5753
aS'H4+1'
p5754
aS'M5+1'
p5755
aS'M7+1'
p5756
aS'H8+1'
p5757
aS'E9+1'
p5758
asS'-o+o--++:'
p5759
(lp5760
S'E0+1'
p5761
aS'M1-1'
p5762
aS'M2-1'
p5763
aS'M3+1'
p5764
aS'M4+1'
p5765
aS'H6-1'
p5766
asS'o-+-o+++:'
p5767
(lp5768
S'E0+1'
p5769
aS'E0-1'
p5770
aS'UB0-1'
p5771
aS'M1+1'
p5772
aS'M4-1'
p5773
aS'M5-1'
p5774
asS':oo+o-+o+'
p5775
(lp5776
S'B1-1'
p5777
aS'H2+1'
p5778
aS'M3+1'
p5779
aS'M5-1'
p5780
aS'M7-1'
p5781
aS'M8+1'
p5782
aS'E9-1'
p5783
asS'o++-+:oo+'
p5784
(lp5785
S'E0+1'
p5786
aS'E0-1'
p5787
aS'M1-1'
p5788
aS'H3+1'
p5789
aS'H4-1'
p5790
aS'B6-1'
p5791
aS'H7+1'
p5792
aS'M8+1'
p5793
asS'o+-+--++:'
p5794
(lp5795
S'E0+1'
p5796
aS'E0-1'
p5797
aS'UB0-1'
p5798
aS'M1-1'
p5799
aS'H3-1'
p5800
aS'H4+1'
p5801
aS'H6-1'
p5802
asS'-++o:oo+o'
p5803
(lp5804
S'E0+1'
p5805
aS'H1-1'
p5806
aS'M3+1'
p5807
aS'B5-1'
p5808
aS'H6+1'
p5809
aS'M7+1'
p5810
aS'E9+1'
p5811
aS'E9-1'
p5812
asS'++-+o++:o'
p5813
(lp5814
S'E0-1'
p5815
aS'H2+1'
p5816
aS'M4+1'
p5817
aS'M5-1'
p5818
aS'B8-1'
p5819
aS'E9+1'
p5820
asS'oo+--++o:'
p5821
(lp5822
S'E0+1'
p5823
aS'E0-1'
p5824
aS'UB0-1'
p5825
aS'H1-1'
p5826
aS'H1+1'
p5827
aS'M2-1'
p5828
aS'H5-1'
p5829
aS'M7+1'
p5830
aS'F8+1'
p5831
asS'o-+++o:+o'
p5832
(lp5833
S'E0+1'
p5834
aS'E0-1'
p5835
aS'M1+1'
p5836
aS'M5+1'
p5837
aS'F6+1'
p5838
aS'M8-1'
p5839
aS'E9+1'
p5840
aS'E9-1'
p5841
asS'oo-oo+o:o'
p5842
(lp5843
S'E0+1'
p5844
aS'H1+1'
p5845
aS'H4-1'
p5846
aS'H4+1'
p5847
aS'M5-1'
p5848
aS'F7+1'
p5849
aS'B8-1'
p5850
aS'E9+1'
p5851
asS'-o+-o+:o+'
p5852
(lp5853
S'E0+1'
p5854
aS'M1-1'
p5855
aS'M2-1'
p5856
aS'M4-1'
p5857
aS'M5-1'
p5858
aS'B7-1'
p5859
aS'M8+1'
p5860
aS'E9-1'
p5861
asS'o+-++-+:o'
p5862
(lp5863
S'E0+1'
p5864
aS'E0-1'
p5865
aS'M1-1'
p5866
aS'H3-1'
p5867
aS'H5+1'
p5868
aS'H6-1'
p5869
aS'B8-1'
p5870
aS'E9+1'
p5871
asS'-+-oo+++:'
p5872
(lp5873
S'E0+1'
p5874
aS'H1-1'
p5875
aS'M3-1'
p5876
aS'H4-1'
p5877
aS'H4+1'
p5878
aS'M5-1'
p5879
asS'o+o-o+oo:'
p5880
(lp5881
S'E0+1'
p5882
aS'E0-1'
p5883
aS'UB0-1'
p5884
aS'M1-1'
p5885
aS'M2+1'
p5886
aS'M3+1'
p5887
aS'M4-1'
p5888
aS'M6+1'
p5889
aS'H7+1'
p5890
aS'F8+1'
p5891
asS'oo+-+o:o+'
p5892
(lp5893
S'E0+1'
p5894
aS'E0-1'
p5895
aS'H1-1'
p5896
aS'H1+1'
p5897
aS'M2-1'
p5898
aS'M5+1'
p5899
aS'F6+1'
p5900
aS'B7-1'
p5901
aS'M8+1'
p5902
aS'E9-1'
p5903
asS'oo-o++o+:'
p5904
(lp5905
S'E0+1'
p5906
aS'E0-1'
p5907
aS'UB0-1'
p5908
aS'H1-1'
p5909
aS'H1+1'
p5910
aS'M2+1'
p5911
aS'M4-1'
p5912
aS'M6+1'
p5913
aS'M7-1'
p5914
asS'o:oo+-o++'
p5915
(lp5916
S'E0+1'
p5917
aS'B2-1'
p5918
aS'H3+1'
p5919
aS'M4+1'
p5920
aS'M6+1'
p5921
aS'M7+1'
p5922
aS'E9-1'
p5923
asS'++-o+o:o+'
p5924
(lp5925
S'E0-1'
p5926
aS'M3-1'
p5927
aS'M4-1'
p5928
aS'M5+1'
p5929
aS'F6+1'
p5930
aS'B7-1'
p5931
aS'M8+1'
p5932
aS'E9-1'
p5933
asS'--+-o++o:'
p5934
(lp5935
S'E0+1'
p5936
aS'H2-1'
p5937
aS'M4-1'
p5938
aS'M5-1'
p5939
aS'M7+1'
p5940
aS'F8+1'
p5941
asS'o+o-o+:o+'
p5942
(lp5943
S'E0+1'
p5944
aS'E0-1'
p5945
aS'M1-1'
p5946
aS'M2+1'
p5947
aS'M3+1'
p5948
aS'M4-1'
p5949
aS'M5-1'
p5950
aS'B7-1'
p5951
aS'M8+1'
p5952
aS'E9-1'
p5953
asS'o-o+:oo++'
p5954
(lp5955
S'E0+1'
p5956
aS'M1+1'
p5957
aS'M2-1'
p5958
aS'M3-1'
p5959
aS'B5-1'
p5960
aS'H6+1'
p5961
aS'M7+1'
p5962
aS'E9-1'
p5963
asS'o+o:+-o+-'
p5964
(lp5965
S'E0+1'
p5966
aS'E0-1'
p5967
aS'M1-1'
p5968
aS'M2+1'
p5969
aS'F3+1'
p5970
aS'M6+1'
p5971
aS'M7+1'
p5972
aS'E9+1'
p5973
asS':++-o-o+o'
p5974
(lp5975
S'M4+1'
p5976
aS'M5-1'
p5977
aS'M6+1'
p5978
aS'M7+1'
p5979
aS'M8-1'
p5980
aS'UF8+1'
p5981
aS'E9+1'
p5982
aS'E9-1'
p5983
asS'+oo:o++oo'
p5984
(lp5985
S'M1+1'
p5986
aS'H2+1'
p5987
aS'F3+1'
p5988
aS'M5+1'
p5989
aS'M7-1'
p5990
aS'H8-1'
p5991
aS'H8+1'
p5992
aS'E9+1'
p5993
aS'E9-1'
p5994
asS'+-++-+o:o'
p5995
(lp5996
S'E0-1'
p5997
aS'H1+1'
p5998
aS'H2-1'
p5999
aS'H4+1'
p6000
aS'M6+1'
p6001
aS'F7+1'
p6002
aS'B8-1'
p6003
aS'E9+1'
p6004
asS'oo+-o+o:+'
p6005
(lp6006
S'E0+1'
p6007
aS'E0-1'
p6008
aS'H1-1'
p6009
aS'H1+1'
p6010
aS'M2-1'
p6011
aS'M4-1'
p6012
aS'M5-1'
p6013
aS'M6+1'
p6014
aS'F7+1'
p6015
aS'E9-1'
p6016
asS'-o-+o+o+:'
p6017
(lp6018
S'E0+1'
p6019
aS'M1-1'
p6020
aS'M2+1'
p6021
aS'M4+1'
p6022
aS'M5-1'
p6023
aS'M6+1'
p6024
aS'M7-1'
p6025
asS'o:++o-+-o'
p6026
(lp6027
S'E0+1'
p6028
aS'F1+1'
p6029
aS'M4-1'
p6030
aS'M5-1'
p6031
aS'M8+1'
p6032
aS'E9+1'
p6033
aS'E9-1'
p6034
asS'+-+oo+o:+'
p6035
(lp6036
S'E0-1'
p6037
aS'H1+1'
p6038
aS'M3+1'
p6039
aS'H4-1'
p6040
aS'H4+1'
p6041
aS'M5-1'
p6042
aS'F7+1'
p6043
aS'E9-1'
p6044
asS'+o:+-+o+-'
p6045
(lp6046
S'E0-1'
p6047
aS'M1+1'
p6048
aS'F2+1'
p6049
aS'H4-1'
p6050
aS'M6-1'
p6051
aS'M7+1'
p6052
aS'E9+1'
p6053
asS'+o:+-+o++'
p6054
(lp6055
S'E0-1'
p6056
aS'M1+1'
p6057
aS'F2+1'
p6058
aS'H4-1'
p6059
aS'M6-1'
p6060
aS'M7+1'
p6061
aS'E9-1'
p6062
asS'-+-++o+:+'
p6063
(lp6064
S'E0+1'
p6065
aS'H1-1'
p6066
aS'H2+1'
p6067
aS'H3-1'
p6068
aS'M5+1'
p6069
aS'M6-1'
p6070
aS'E9-1'
p6071
asS'-oo-o+++:'
p6072
(lp6073
S'M1-1'
p6074
aS'H2-1'
p6075
aS'H2+1'
p6076
aS'M3+1'
p6077
aS'M5-1'
p6078
asS'+o+o:+o++'
p6079
(lp6080
S'E0-1'
p6081
aS'M1+1'
p6082
aS'M2-1'
p6083
aS'M3+1'
p6084
aS'F4+1'
p6085
aS'M6-1'
p6086
aS'M7+1'
p6087
aS'E9-1'
p6088
asS'++:o+-o++'
p6089
(lp6090
S'E0-1'
p6091
aS'B3-1'
p6092
aS'M4+1'
p6093
aS'M6+1'
p6094
aS'M7+1'
p6095
aS'E9-1'
p6096
asS'-o+-o+++:'
p6097
(lp6098
S'E0+1'
p6099
aS'M1-1'
p6100
aS'M2-1'
p6101
aS'M4-1'
p6102
aS'M5-1'
p6103
asS'o:o+o-o++'
p6104
(lp6105
S'E0+1'
p6106
aS'F1+1'
p6107
aS'B2-1'
p6108
aS'M3+1'
p6109
aS'M4-1'
p6110
aS'M5-1'
p6111
aS'M6+1'
p6112
aS'M7+1'
p6113
aS'E9-1'
p6114
asS'--oo-+++:'
p6115
(lp6116
S'E0+1'
p6117
aS'M2-1'
p6118
aS'H3-1'
p6119
aS'H3+1'
p6120
aS'M4+1'
p6121
asS':+oo++-oo'
p6122
(lp6123
S'M2-1'
p6124
aS'H3-1'
p6125
aS'H3+1'
p6126
aS'M4+1'
p6127
aS'M7+1'
p6128
aS'H8-1'
p6129
aS'H8+1'
p6130
aS'UF8+1'
p6131
aS'E9+1'
p6132
aS'E9-1'
p6133
asS'oo:oo+oo-'
p6134
(lp6135
S'E0+1'
p6136
aS'M8-1'
p6137
aS'H7-1'
p6138
aS'H7+1'
p6139
aS'H4+1'
p6140
aS'H1+1'
p6141
asS'oo--+++o:'
p6142
(lp6143
S'E0+1'
p6144
aS'E0-1'
p6145
aS'UB0-1'
p6146
aS'H1-1'
p6147
aS'H1+1'
p6148
aS'M2+1'
p6149
aS'H4-1'
p6150
aS'M7+1'
p6151
aS'F8+1'
p6152
asS':oo+o+o-o'
p6153
(lp6154
S'B1-1'
p6155
aS'H2+1'
p6156
aS'M3+1'
p6157
aS'M5+1'
p6158
aS'M6-1'
p6159
aS'M7-1'
p6160
aS'M8+1'
p6161
aS'UF8+1'
p6162
aS'E9+1'
p6163
aS'E9-1'
p6164
asS'o--o-+++:'
p6165
(lp6166
S'E0+1'
p6167
aS'UB0-1'
p6168
aS'M1+1'
p6169
aS'M3-1'
p6170
aS'M4+1'
p6171
asS'+o+-+:oo+'
p6172
(lp6173
S'E0-1'
p6174
aS'M1+1'
p6175
aS'M2-1'
p6176
aS'H4-1'
p6177
aS'B6-1'
p6178
aS'H7+1'
p6179
aS'M8+1'
p6180
asS'++o--+o+:'
p6181
(lp6182
S'E0-1'
p6183
aS'M2+1'
p6184
aS'M3+1'
p6185
aS'M6+1'
p6186
aS'M7-1'
p6187
asS'++--+oo+:'
p6188
(lp6189
S'E0-1'
p6190
aS'H2+1'
p6191
aS'M5+1'
p6192
aS'H6-1'
p6193
aS'H6+1'
p6194
aS'M7-1'
p6195
asS'+oo:o++o-'
p6196
(lp6197
S'M1+1'
p6198
aS'H2+1'
p6199
aS'F3+1'
p6200
aS'M5+1'
p6201
aS'M7-1'
p6202
aS'M8-1'
p6203
aS'E9+1'
p6204
asS'-+oo:o+-o'
p6205
(lp6206
S'E0+1'
p6207
aS'M2+1'
p6208
aS'H3+1'
p6209
aS'F4+1'
p6210
aS'M6+1'
p6211
aS'M8+1'
p6212
aS'E9+1'
p6213
asS'-o--o+++:'
p6214
(lp6215
S'E0+1'
p6216
aS'M1-1'
p6217
aS'M2+1'
p6218
aS'M4-1'
p6219
aS'M5-1'
p6220
asS'-o+++:o+o'
p6221
(lp6222
S'E0+1'
p6223
aS'M1-1'
p6224
aS'M2-1'
p6225
aS'B6-1'
p6226
aS'M7+1'
p6227
aS'M8-1'
p6228
aS'E9+1'
p6229
aS'E9-1'
p6230
asS'-+o++:o+o'
p6231
(lp6232
S'E0+1'
p6233
aS'M2+1'
p6234
aS'M3-1'
p6235
aS'B6-1'
p6236
aS'M7+1'
p6237
aS'M8-1'
p6238
aS'E9+1'
p6239
aS'E9-1'
p6240
asS'+o:+-+o+o'
p6241
(lp6242
S'E0-1'
p6243
aS'M1+1'
p6244
aS'F2+1'
p6245
aS'H4-1'
p6246
aS'M6-1'
p6247
aS'M7+1'
p6248
aS'M8-1'
p6249
aS'E9+1'
p6250
aS'E9-1'
p6251
asS'+o:+-+-++'
p6252
(lp6253
S'E0-1'
p6254
aS'M1+1'
p6255
aS'F2+1'
p6256
aS'H4-1'
p6257
aS'H5+1'
p6258
aS'H6-1'
p6259
aS'H7+1'
p6260
aS'E9-1'
p6261
asS'+-+oo+:oo'
p6262
(lp6263
S'E0-1'
p6264
aS'H1+1'
p6265
aS'M3+1'
p6266
aS'H4-1'
p6267
aS'H4+1'
p6268
aS'M5-1'
p6269
aS'B7-1'
p6270
aS'H8+1'
p6271
aS'E9+1'
p6272
asS'o:++o-+-+'
p6273
(lp6274
S'E0+1'
p6275
aS'F1+1'
p6276
aS'M4-1'
p6277
aS'M5-1'
p6278
aS'H7-1'
p6279
aS'H8+1'
p6280
aS'E9-1'
p6281
asS'o+o-++o:o'
p6282
(lp6283
S'E0+1'
p6284
aS'E0-1'
p6285
aS'M1-1'
p6286
aS'M2+1'
p6287
aS'M3+1'
p6288
aS'M6+1'
p6289
aS'F7+1'
p6290
aS'B8-1'
p6291
aS'E9+1'
p6292
asS'+o+-o+o:o'
p6293
(lp6294
S'E0-1'
p6295
aS'M1+1'
p6296
aS'M2-1'
p6297
aS'M4-1'
p6298
aS'M5-1'
p6299
aS'M6+1'
p6300
aS'F7+1'
p6301
aS'B8-1'
p6302
aS'E9+1'
p6303
asS'+-o+o:o+o'
p6304
(lp6305
S'E0-1'
p6306
aS'M2-1'
p6307
aS'M3-1'
p6308
aS'M4+1'
p6309
aS'F5+1'
p6310
aS'B6-1'
p6311
aS'M7+1'
p6312
aS'M8-1'
p6313
aS'E9+1'
p6314
aS'E9-1'
p6315
asS':+o+oo-++'
p6316
(lp6317
S'E9-1'
p6318
aS'M2-1'
p6319
aS'M4-1'
p6320
aS'H5-1'
p6321
aS'H5+1'
p6322
aS'M6-1'
p6323
asS'++:+oo-++'
p6324
(lp6325
S'E0-1'
p6326
aS'E9-1'
p6327
aS'M4-1'
p6328
aS'H5-1'
p6329
aS'H5+1'
p6330
aS'M6-1'
p6331
asS'o-oo+:o++'
p6332
(lp6333
S'E0+1'
p6334
aS'M2-1'
p6335
aS'H3-1'
p6336
aS'H3+1'
p6337
aS'M4-1'
p6338
aS'B6-1'
p6339
aS'M7+1'
p6340
aS'E9-1'
p6341
asS'o-o+:o+o+'
p6342
(lp6343
S'E0+1'
p6344
aS'M1+1'
p6345
aS'M2-1'
p6346
aS'M3-1'
p6347
aS'B5-1'
p6348
aS'M6+1'
p6349
aS'M7-1'
p6350
aS'M8+1'
p6351
aS'E9-1'
p6352
asS'+o:o+o-o+'
p6353
(lp6354
S'E0-1'
p6355
aS'M1+1'
p6356
aS'F2+1'
p6357
aS'B3-1'
p6358
aS'M4+1'
p6359
aS'M5-1'
p6360
aS'M6-1'
p6361
aS'M7+1'
p6362
aS'M8+1'
p6363
aS'E9-1'
p6364
asS'o+--++:+o'
p6365
(lp6366
S'E0+1'
p6367
aS'E0-1'
p6368
aS'E9+1'
p6369
aS'E9-1'
p6370
aS'H4-1'
p6371
aS'M8-1'
p6372
aS'M1-1'
p6373
asS'+o+o-+:oo'
p6374
(lp6375
S'E0-1'
p6376
aS'M1+1'
p6377
aS'M2-1'
p6378
aS'M3+1'
p6379
aS'M4+1'
p6380
aS'B7-1'
p6381
aS'H8+1'
p6382
aS'E9+1'
p6383
asS'o:+o+-+-o'
p6384
(lp6385
S'E0+1'
p6386
aS'F1+1'
p6387
aS'M3-1'
p6388
aS'M4+1'
p6389
aS'H6+1'
p6390
aS'M8+1'
p6391
aS'E9+1'
p6392
aS'E9-1'
p6393
asS'o++-+-+:o'
p6394
(lp6395
S'E0+1'
p6396
aS'E0-1'
p6397
aS'M1-1'
p6398
aS'H3+1'
p6399
aS'H4-1'
p6400
aS'H5+1'
p6401
aS'H6-1'
p6402
aS'B8-1'
p6403
aS'E9+1'
p6404
asS':o+oo+-++'
p6405
(lp6406
S'B1-1'
p6407
aS'M3-1'
p6408
aS'H4-1'
p6409
aS'H4+1'
p6410
aS'M5+1'
p6411
aS'H7+1'
p6412
aS'E9-1'
p6413
asS'+:++o-+-o'
p6414
(lp6415
S'E0-1'
p6416
aS'E9+1'
p6417
aS'E9-1'
p6418
aS'M4-1'
p6419
aS'M5-1'
p6420
aS'M8+1'
p6421
asS':++o+-+--'
p6422
(lp6423
S'E9+1'
p6424
aS'M3-1'
p6425
aS'M4+1'
p6426
aS'H6+1'
p6427
aS'H7-1'
p6428
asS'o+--++oo:'
p6429
(lp6430
S'E0+1'
p6431
aS'E0-1'
p6432
aS'UB0-1'
p6433
aS'M1-1'
p6434
aS'H4-1'
p6435
aS'M6+1'
p6436
aS'H7+1'
p6437
aS'F8+1'
p6438
asS'++o-+:o+o'
p6439
(lp6440
S'E0-1'
p6441
aS'M2+1'
p6442
aS'M3+1'
p6443
aS'B6-1'
p6444
aS'M7+1'
p6445
aS'M8-1'
p6446
aS'E9+1'
p6447
aS'E9-1'
p6448
asS'+o:oo+o-o'
p6449
(lp6450
S'E0-1'
p6451
aS'M1+1'
p6452
aS'B3-1'
p6453
aS'H4+1'
p6454
aS'M5+1'
p6455
aS'M7-1'
p6456
aS'M8+1'
p6457
aS'E9+1'
p6458
asS'-+o:+o-+o'
p6459
(lp6460
S'E0+1'
p6461
aS'M2+1'
p6462
aS'F3+1'
p6463
aS'M5-1'
p6464
aS'M6-1'
p6465
aS'M8-1'
p6466
aS'E9+1'
p6467
aS'E9-1'
p6468
asS'-+-o-o++:'
p6469
(lp6470
S'E0+1'
p6471
aS'H1-1'
p6472
aS'M3-1'
p6473
aS'M4+1'
p6474
aS'M5-1'
p6475
aS'M6-1'
p6476
asS'+o--+-++:'
p6477
(lp6478
S'E0-1'
p6479
aS'M1+1'
p6480
aS'M2+1'
p6481
aS'H4-1'
p6482
aS'H5+1'
p6483
aS'H6-1'
p6484
asS'+o:o+o-++'
p6485
(lp6486
S'E0-1'
p6487
aS'M1+1'
p6488
aS'F2+1'
p6489
aS'B3-1'
p6490
aS'M4+1'
p6491
aS'M5-1'
p6492
aS'M6-1'
p6493
aS'E9-1'
p6494
asS':+o+o-o++'
p6495
(lp6496
S'M2-1'
p6497
aS'M3+1'
p6498
aS'M4-1'
p6499
aS'M5-1'
p6500
aS'M6+1'
p6501
aS'M7+1'
p6502
aS'E9-1'
p6503
asS'o:+-+o+o-'
p6504
(lp6505
S'E0+1'
p6506
aS'F1+1'
p6507
aS'H3-1'
p6508
aS'M5-1'
p6509
aS'M6+1'
p6510
aS'M7-1'
p6511
aS'M8-1'
p6512
aS'E9+1'
p6513
asS':+-++-o++'
p6514
(lp6515
S'E9-1'
p6516
aS'H2-1'
p6517
aS'H3+1'
p6518
aS'M6+1'
p6519
aS'M7+1'
p6520
asS'o+o++:o+o'
p6521
(lp6522
S'E0+1'
p6523
aS'E0-1'
p6524
aS'M1-1'
p6525
aS'M2+1'
p6526
aS'M3-1'
p6527
aS'B6-1'
p6528
aS'M7+1'
p6529
aS'M8-1'
p6530
aS'E9+1'
p6531
aS'E9-1'
p6532
asS'o+o:+-+o-'
p6533
(lp6534
S'E0+1'
p6535
aS'E0-1'
p6536
aS'M1-1'
p6537
aS'M2+1'
p6538
aS'F3+1'
p6539
aS'H5-1'
p6540
aS'M7-1'
p6541
aS'M8-1'
p6542
aS'E9+1'
p6543
asS'+o--++:+o'
p6544
(lp6545
S'E0-1'
p6546
aS'M1+1'
p6547
aS'M2+1'
p6548
aS'H4-1'
p6549
aS'M8-1'
p6550
aS'E9+1'
p6551
aS'E9-1'
p6552
asS'+:+o+o-+o'
p6553
(lp6554
S'E0-1'
p6555
aS'M3-1'
p6556
aS'M4+1'
p6557
aS'M5-1'
p6558
aS'M6-1'
p6559
aS'M8-1'
p6560
aS'E9+1'
p6561
aS'E9-1'
p6562
asS'o-+:+o-+o'
p6563
(lp6564
S'E0+1'
p6565
aS'M1+1'
p6566
aS'M5-1'
p6567
aS'M6-1'
p6568
aS'M8-1'
p6569
aS'E9+1'
p6570
aS'E9-1'
p6571
asS'+-o+o:o++'
p6572
(lp6573
S'E0-1'
p6574
aS'M2-1'
p6575
aS'M3-1'
p6576
aS'M4+1'
p6577
aS'F5+1'
p6578
aS'B6-1'
p6579
aS'M7+1'
p6580
aS'E9-1'
p6581
asS'oo+++:oo+'
p6582
(lp6583
S'E0+1'
p6584
aS'E0-1'
p6585
aS'H1-1'
p6586
aS'H1+1'
p6587
aS'M2-1'
p6588
aS'B6-1'
p6589
aS'H7+1'
p6590
aS'M8+1'
p6591
asS'-o+o-oo+:'
p6592
(lp6593
S'E0+1'
p6594
aS'M1-1'
p6595
aS'M2-1'
p6596
aS'M3+1'
p6597
aS'M5-1'
p6598
aS'H6-1'
p6599
aS'H6+1'
p6600
aS'M7-1'
p6601
asS':++o-o-++'
p6602
(lp6603
S'E9-1'
p6604
aS'M3-1'
p6605
aS'M4-1'
p6606
aS'M5+1'
p6607
aS'M6-1'
p6608
asS'o+:oo++oo'
p6609
(lp6610
S'E0+1'
p6611
aS'E0-1'
p6612
aS'M1-1'
p6613
aS'B3-1'
p6614
aS'H4+1'
p6615
aS'M5+1'
p6616
aS'M7-1'
p6617
aS'H8-1'
p6618
aS'H8+1'
p6619
aS'E9+1'
p6620
aS'E9-1'
p6621
asS'o-oo+:o+o'
p6622
(lp6623
S'E0+1'
p6624
aS'M2-1'
p6625
aS'H3-1'
p6626
aS'H3+1'
p6627
aS'M4-1'
p6628
aS'B6-1'
p6629
aS'M7+1'
p6630
aS'M8-1'
p6631
aS'E9+1'
p6632
aS'E9-1'
p6633
asS'o+--+o+o:'
p6634
(lp6635
S'E0+1'
p6636
aS'E0-1'
p6637
aS'UB0-1'
p6638
aS'M1-1'
p6639
aS'M5+1'
p6640
aS'M6-1'
p6641
aS'M7+1'
p6642
aS'F8+1'
p6643
asS'+o+o-+:o+'
p6644
(lp6645
S'E0-1'
p6646
aS'M1+1'
p6647
aS'M2-1'
p6648
aS'M3+1'
p6649
aS'M4+1'
p6650
aS'B7-1'
p6651
aS'M8+1'
p6652
aS'E9-1'
p6653
asS':+o+o+--o'
p6654
(lp6655
S'M2-1'
p6656
aS'M3+1'
p6657
aS'M4-1'
p6658
aS'M5+1'
p6659
aS'M8+1'
p6660
aS'UF8+1'
p6661
aS'E9+1'
p6662
aS'E9-1'
p6663
asS'+o:o+o-oo'
p6664
(lp6665
S'E0-1'
p6666
aS'M1+1'
p6667
aS'F2+1'
p6668
aS'B3-1'
p6669
aS'M4+1'
p6670
aS'M5-1'
p6671
aS'M7+1'
p6672
aS'H8+1'
p6673
aS'E9+1'
p6674
asS'o--++:+-+'
p6675
(lp6676
S'E0+1'
p6677
aS'M1+1'
p6678
aS'H3-1'
p6679
aS'H7-1'
p6680
aS'H8+1'
p6681
aS'E9-1'
p6682
asS'+:++o-+-+'
p6683
(lp6684
S'E0-1'
p6685
aS'M4-1'
p6686
aS'M5-1'
p6687
aS'H7-1'
p6688
aS'H8+1'
p6689
aS'E9-1'
p6690
asS'+:+-oo++o'
p6691
(lp6692
S'E0-1'
p6693
aS'M4+1'
p6694
aS'H5+1'
p6695
aS'M6+1'
p6696
aS'M8-1'
p6697
aS'E9+1'
p6698
aS'E9-1'
p6699
asS'-o+-+:++o'
p6700
(lp6701
S'E0+1'
p6702
aS'M1-1'
p6703
aS'M2-1'
p6704
aS'H4-1'
p6705
aS'M8-1'
p6706
aS'E9+1'
p6707
aS'E9-1'
p6708
asS'+oo-o+oo:'
p6709
(lp6710
S'M1+1'
p6711
aS'H2+1'
p6712
aS'M3+1'
p6713
aS'M6+1'
p6714
aS'H7+1'
p6715
aS'F8+1'
p6716
asS'o+-+o++:+'
p6717
(lp6718
S'E0+1'
p6719
aS'E0-1'
p6720
aS'E9-1'
p6721
aS'M4+1'
p6722
aS'M5-1'
p6723
aS'M1-1'
p6724
asS'-oo+:o+o+'
p6725
(lp6726
S'M1-1'
p6727
aS'H2-1'
p6728
aS'H2+1'
p6729
aS'M3-1'
p6730
aS'B5-1'
p6731
aS'M6+1'
p6732
aS'M7-1'
p6733
aS'M8+1'
p6734
aS'E9-1'
p6735
asS':+o+oo+--'
p6736
(lp6737
S'E9+1'
p6738
aS'M2-1'
p6739
aS'M4-1'
p6740
aS'H5-1'
p6741
aS'H5+1'
p6742
aS'M6+1'
p6743
asS'o+:o+-o+o'
p6744
(lp6745
S'E0+1'
p6746
aS'E0-1'
p6747
aS'M1-1'
p6748
aS'B3-1'
p6749
aS'M4+1'
p6750
aS'M6+1'
p6751
aS'M7+1'
p6752
aS'M8-1'
p6753
aS'E9+1'
p6754
aS'E9-1'
p6755
asS'+---+++:o'
p6756
(lp6757
S'E0-1'
p6758
aS'E9+1'
p6759
aS'H4-1'
p6760
aS'B8-1'
p6761
aS'H1+1'
p6762
asS'oo:o+o-o+'
p6763
(lp6764
S'E0+1'
p6765
aS'H1+1'
p6766
aS'F2+1'
p6767
aS'M4+1'
p6768
aS'M5-1'
p6769
aS'M6-1'
p6770
aS'M7+1'
p6771
aS'M8+1'
p6772
aS'E9-1'
p6773
asS':o+++o-+-'
p6774
(lp6775
S'B1-1'
p6776
aS'M2+1'
p6777
aS'M5-1'
p6778
aS'M6-1'
p6779
aS'H8-1'
p6780
aS'E9+1'
p6781
asS'+:+o+-+-o'
p6782
(lp6783
S'E0-1'
p6784
aS'M3-1'
p6785
aS'M4+1'
p6786
aS'H6+1'
p6787
aS'M8+1'
p6788
aS'E9+1'
p6789
aS'E9-1'
p6790
asS'-++o:+-+o'
p6791
(lp6792
S'E0+1'
p6793
aS'H1-1'
p6794
aS'M3+1'
p6795
aS'F4+1'
p6796
aS'H6-1'
p6797
aS'M8-1'
p6798
aS'E9+1'
p6799
aS'E9-1'
p6800
asS':oo+o-o+o'
p6801
(lp6802
S'B1-1'
p6803
aS'H2+1'
p6804
aS'M3+1'
p6805
aS'M5-1'
p6806
aS'M6+1'
p6807
aS'M7+1'
p6808
aS'M8-1'
p6809
aS'UF8+1'
p6810
aS'E9+1'
p6811
aS'E9-1'
p6812
asS'o+o:+-+oo'
p6813
(lp6814
S'E0+1'
p6815
aS'E0-1'
p6816
aS'M1-1'
p6817
aS'M2+1'
p6818
aS'F3+1'
p6819
aS'H5-1'
p6820
aS'M7-1'
p6821
aS'H8-1'
p6822
aS'H8+1'
p6823
aS'E9+1'
p6824
aS'E9-1'
p6825
asS'+:+o+o-+-'
p6826
(lp6827
S'E0-1'
p6828
aS'M3-1'
p6829
aS'M4+1'
p6830
aS'M5-1'
p6831
aS'M6-1'
p6832
aS'H8-1'
p6833
aS'E9+1'
p6834
asS'o+-o+:o+o'
p6835
(lp6836
S'E0+1'
p6837
aS'E0-1'
p6838
aS'M1-1'
p6839
aS'M3-1'
p6840
aS'M4-1'
p6841
aS'B6-1'
p6842
aS'M7+1'
p6843
aS'M8-1'
p6844
aS'E9+1'
p6845
aS'E9-1'
p6846
as.